
kernel.elf:     формат файла elf64-x86-64


Дизассемблирование раздела .text:

0000000000100020 <_start>:
  100020:	bc 00 b0 10 00       	mov    $0x10b000,%esp
  100025:	53                   	push   %rbx
  100026:	50                   	push   %rax
  100027:	e8 31 00 00 00       	call   10005d <check_cpuid>
  10002c:	e8 44 00 00 00       	call   100075 <check_long_mode>
  100031:	58                   	pop    %rax
  100032:	5b                   	pop    %rbx
  100033:	89 c7                	mov    %eax,%edi
  100035:	89 de                	mov    %ebx,%esi
  100037:	e8 5b 00 00 00       	call   100097 <setup_page_tables>
  10003c:	e8 80 00 00 00       	call   1000c1 <enable_paging>
  100041:	a3 00 f0 10 00 89 1d 	movabs %eax,0xf0081d890010f000
  100048:	08 f0 
  10004a:	10 00                	adc    %al,(%rax)
  10004c:	8d 05 98 4d 10 00    	lea    0x104d98(%rip),%eax        # 204dea <last.0+0xee24a>
  100052:	0f 01 10             	lgdt   (%rax)
  100055:	ea                   	(bad)
  100056:	10 01                	adc    %al,(%rcx)
  100058:	10 00                	adc    %al,(%rax)
  10005a:	08 00                	or     %al,(%rax)
  10005c:	f4                   	hlt

000000000010005d <check_cpuid>:
  10005d:	9c                   	pushf
  10005e:	58                   	pop    %rax
  10005f:	89 c1                	mov    %eax,%ecx
  100061:	35 00 00 20 00       	xor    $0x200000,%eax
  100066:	50                   	push   %rax
  100067:	9d                   	popf
  100068:	9c                   	pushf
  100069:	58                   	pop    %rax
  10006a:	51                   	push   %rcx
  10006b:	9d                   	popf
  10006c:	39 c8                	cmp    %ecx,%eax
  10006e:	74 01                	je     100071 <check_cpuid.no_cpuid>
  100070:	c3                   	ret

0000000000100071 <check_cpuid.no_cpuid>:
  100071:	b0 31                	mov    $0x31,%al
  100073:	eb 77                	jmp    1000ec <error>

0000000000100075 <check_long_mode>:
  100075:	b8 00 00 00 80       	mov    $0x80000000,%eax
  10007a:	0f a2                	cpuid
  10007c:	3d 01 00 00 80       	cmp    $0x80000001,%eax
  100081:	72 10                	jb     100093 <check_long_mode.no_long_mode>
  100083:	b8 01 00 00 80       	mov    $0x80000001,%eax
  100088:	0f a2                	cpuid
  10008a:	f7 c2 00 00 00 20    	test   $0x20000000,%edx
  100090:	74 01                	je     100093 <check_long_mode.no_long_mode>
  100092:	c3                   	ret

0000000000100093 <check_long_mode.no_long_mode>:
  100093:	b0 32                	mov    $0x32,%al
  100095:	eb 55                	jmp    1000ec <error>

0000000000100097 <setup_page_tables>:
  100097:	b8 00 10 11 00       	mov    $0x111000,%eax
  10009c:	83 c8 03             	or     $0x3,%eax
  10009f:	a3 00 00 11 00 b9 00 	movabs %eax,0xb900110000
  1000a6:	00 00 
	...

00000000001000a9 <setup_page_tables.map_l3_table>:
  1000a9:	89 c8                	mov    %ecx,%eax
  1000ab:	c1 e0 1e             	shl    $0x1e,%eax
  1000ae:	0d 83 00 00 00       	or     $0x83,%eax
  1000b3:	89 04 cd 00 10 11 00 	mov    %eax,0x111000(,%rcx,8)
  1000ba:	41 83 f9 04          	cmp    $0x4,%r9d
  1000be:	75 e9                	jne    1000a9 <setup_page_tables.map_l3_table>
  1000c0:	c3                   	ret

00000000001000c1 <enable_paging>:
  1000c1:	0f 20 e0             	mov    %cr4,%rax
  1000c4:	83 c8 20             	or     $0x20,%eax
  1000c7:	0f 22 e0             	mov    %rax,%cr4
  1000ca:	b8 00 00 11 00       	mov    $0x110000,%eax
  1000cf:	0f 22 d8             	mov    %rax,%cr3
  1000d2:	b9 80 00 00 c0       	mov    $0xc0000080,%ecx
  1000d7:	0f 32                	rdmsr
  1000d9:	0d 00 01 00 00       	or     $0x100,%eax
  1000de:	0f 30                	wrmsr
  1000e0:	0f 20 c0             	mov    %cr0,%rax
  1000e3:	0d 00 00 00 80       	or     $0x80000000,%eax
  1000e8:	0f 22 c0             	mov    %rax,%cr0
  1000eb:	c3                   	ret

00000000001000ec <error>:
  1000ec:	c7 05 00 80 0b 00 45 	movl   $0x4f524f45,0xb8000(%rip)        # 1b80f6 <last.0+0xa1556>
  1000f3:	4f 52 4f 
  1000f6:	c7 05 04 80 0b 00 52 	movl   $0x4f3a4f52,0xb8004(%rip)        # 1b8104 <last.0+0xa1564>
  1000fd:	4f 3a 4f 
  100100:	c7 05 08 80 0b 00 20 	movl   $0x4f204f20,0xb8008(%rip)        # 1b8112 <last.0+0xa1572>
  100107:	4f 20 4f 
  10010a:	a2                   	.byte 0xa2
  10010b:	0a                   	.byte 0xa
  10010c:	80 0b 00             	orb    $0x0,(%rbx)
  10010f:	f4                   	hlt

0000000000100110 <long_mode_start>:
  100110:	66 b8 10 00          	mov    $0x10,%ax
  100114:	8e d8                	mov    %eax,%ds
  100116:	8e c0                	mov    %eax,%es
  100118:	8e d0                	mov    %eax,%ss
  10011a:	48 bc 00 b0 10 00 00 	movabs $0x10b000,%rsp
  100121:	00 00 00 
  100124:	48 8b 3c 25 00 f0 10 	mov    0x10f000,%rdi
  10012b:	00 
  10012c:	48 8b 34 25 08 f0 10 	mov    0x10f008,%rsi
  100133:	00 
  100134:	fa                   	cli
  100135:	e8 09 00 00 00       	call   100143 <kernel_main>
  10013a:	fa                   	cli
  10013b:	e8 00 00 00 00       	call   100140 <long_mode_start.hang>

0000000000100140 <long_mode_start.hang>:
  100140:	f4                   	hlt
  100141:	eb fd                	jmp    100140 <long_mode_start.hang>

0000000000100143 <kernel_main>:
  100143:	55                   	push   %rbp
  100144:	48 89 e5             	mov    %rsp,%rbp
  100147:	e8 f9 01 00 00       	call   100345 <gdt_init>
  10014c:	e8 7c 05 00 00       	call   1006cd <idt_init>
  100151:	bf a8 4d 10 00       	mov    $0x104da8,%edi
  100156:	b8 00 00 00 00       	mov    $0x0,%eax
  10015b:	e8 8e 0e 00 00       	call   100fee <kprintf>
  100160:	e8 b8 03 00 00       	call   10051d <gdt_print_gdt>
  100165:	e8 63 05 00 00       	call   1006cd <idt_init>
  10016a:	bf c0 4d 10 00       	mov    $0x104dc0,%edi
  10016f:	b8 00 00 00 00       	mov    $0x0,%eax
  100174:	e8 75 0e 00 00       	call   100fee <kprintf>
  100179:	fb                   	sti
  10017a:	f4                   	hlt
  10017b:	eb fd                	jmp    10017a <kernel_main+0x37>

000000000010017d <inb>:
  10017d:	55                   	push   %rbp
  10017e:	48 89 e5             	mov    %rsp,%rbp
  100181:	48 83 ec 18          	sub    $0x18,%rsp
  100185:	89 f8                	mov    %edi,%eax
  100187:	66 89 45 ec          	mov    %ax,-0x14(%rbp)
  10018b:	0f b7 45 ec          	movzwl -0x14(%rbp),%eax
  10018f:	89 c2                	mov    %eax,%edx
  100191:	ec                   	in     (%dx),%al
  100192:	88 45 ff             	mov    %al,-0x1(%rbp)
  100195:	0f b6 45 ff          	movzbl -0x1(%rbp),%eax
  100199:	c9                   	leave
  10019a:	c3                   	ret

000000000010019b <outb>:
  10019b:	55                   	push   %rbp
  10019c:	48 89 e5             	mov    %rsp,%rbp
  10019f:	48 83 ec 08          	sub    $0x8,%rsp
  1001a3:	89 fa                	mov    %edi,%edx
  1001a5:	89 f0                	mov    %esi,%eax
  1001a7:	66 89 55 fc          	mov    %dx,-0x4(%rbp)
  1001ab:	88 45 f8             	mov    %al,-0x8(%rbp)
  1001ae:	0f b6 45 f8          	movzbl -0x8(%rbp),%eax
  1001b2:	0f b7 55 fc          	movzwl -0x4(%rbp),%edx
  1001b6:	ee                   	out    %al,(%dx)
  1001b7:	90                   	nop
  1001b8:	c9                   	leave
  1001b9:	c3                   	ret

00000000001001ba <inw>:
  1001ba:	55                   	push   %rbp
  1001bb:	48 89 e5             	mov    %rsp,%rbp
  1001be:	48 83 ec 18          	sub    $0x18,%rsp
  1001c2:	89 f8                	mov    %edi,%eax
  1001c4:	66 89 45 ec          	mov    %ax,-0x14(%rbp)
  1001c8:	0f b7 45 ec          	movzwl -0x14(%rbp),%eax
  1001cc:	89 c2                	mov    %eax,%edx
  1001ce:	66 ed                	in     (%dx),%ax
  1001d0:	66 89 45 fe          	mov    %ax,-0x2(%rbp)
  1001d4:	0f b7 45 fe          	movzwl -0x2(%rbp),%eax
  1001d8:	c9                   	leave
  1001d9:	c3                   	ret

00000000001001da <outw>:
  1001da:	55                   	push   %rbp
  1001db:	48 89 e5             	mov    %rsp,%rbp
  1001de:	48 83 ec 08          	sub    $0x8,%rsp
  1001e2:	89 fa                	mov    %edi,%edx
  1001e4:	89 f0                	mov    %esi,%eax
  1001e6:	66 89 55 fc          	mov    %dx,-0x4(%rbp)
  1001ea:	66 89 45 f8          	mov    %ax,-0x8(%rbp)
  1001ee:	0f b7 45 f8          	movzwl -0x8(%rbp),%eax
  1001f2:	0f b7 55 fc          	movzwl -0x4(%rbp),%edx
  1001f6:	66 ef                	out    %ax,(%dx)
  1001f8:	90                   	nop
  1001f9:	c9                   	leave
  1001fa:	c3                   	ret

00000000001001fb <inl>:
  1001fb:	55                   	push   %rbp
  1001fc:	48 89 e5             	mov    %rsp,%rbp
  1001ff:	48 83 ec 18          	sub    $0x18,%rsp
  100203:	89 f8                	mov    %edi,%eax
  100205:	66 89 45 ec          	mov    %ax,-0x14(%rbp)
  100209:	0f b7 45 ec          	movzwl -0x14(%rbp),%eax
  10020d:	89 c2                	mov    %eax,%edx
  10020f:	ed                   	in     (%dx),%eax
  100210:	89 45 fc             	mov    %eax,-0x4(%rbp)
  100213:	8b 45 fc             	mov    -0x4(%rbp),%eax
  100216:	c9                   	leave
  100217:	c3                   	ret

0000000000100218 <outl>:
  100218:	55                   	push   %rbp
  100219:	48 89 e5             	mov    %rsp,%rbp
  10021c:	48 83 ec 08          	sub    $0x8,%rsp
  100220:	89 f8                	mov    %edi,%eax
  100222:	89 75 f8             	mov    %esi,-0x8(%rbp)
  100225:	66 89 45 fc          	mov    %ax,-0x4(%rbp)
  100229:	8b 45 f8             	mov    -0x8(%rbp),%eax
  10022c:	0f b7 55 fc          	movzwl -0x4(%rbp),%edx
  100230:	ef                   	out    %eax,(%dx)
  100231:	90                   	nop
  100232:	c9                   	leave
  100233:	c3                   	ret

0000000000100234 <insw>:
  100234:	55                   	push   %rbp
  100235:	48 89 e5             	mov    %rsp,%rbp
  100238:	48 83 ec 10          	sub    $0x10,%rsp
  10023c:	89 f8                	mov    %edi,%eax
  10023e:	48 89 75 f0          	mov    %rsi,-0x10(%rbp)
  100242:	89 55 f8             	mov    %edx,-0x8(%rbp)
  100245:	66 89 45 fc          	mov    %ax,-0x4(%rbp)
  100249:	0f b7 55 fc          	movzwl -0x4(%rbp),%edx
  10024d:	48 8b 4d f0          	mov    -0x10(%rbp),%rcx
  100251:	8b 45 f8             	mov    -0x8(%rbp),%eax
  100254:	48 89 ce             	mov    %rcx,%rsi
  100257:	48 89 f7             	mov    %rsi,%rdi
  10025a:	89 c1                	mov    %eax,%ecx
  10025c:	66 f3 6d             	rep insw (%dx),(%rdi)
  10025f:	89 c8                	mov    %ecx,%eax
  100261:	48 89 fe             	mov    %rdi,%rsi
  100264:	48 89 75 f0          	mov    %rsi,-0x10(%rbp)
  100268:	89 45 f8             	mov    %eax,-0x8(%rbp)
  10026b:	90                   	nop
  10026c:	c9                   	leave
  10026d:	c3                   	ret

000000000010026e <outsw>:
  10026e:	55                   	push   %rbp
  10026f:	48 89 e5             	mov    %rsp,%rbp
  100272:	48 83 ec 10          	sub    $0x10,%rsp
  100276:	89 f8                	mov    %edi,%eax
  100278:	48 89 75 f0          	mov    %rsi,-0x10(%rbp)
  10027c:	89 55 f8             	mov    %edx,-0x8(%rbp)
  10027f:	66 89 45 fc          	mov    %ax,-0x4(%rbp)
  100283:	0f b7 55 fc          	movzwl -0x4(%rbp),%edx
  100287:	48 8b 4d f0          	mov    -0x10(%rbp),%rcx
  10028b:	8b 45 f8             	mov    -0x8(%rbp),%eax
  10028e:	48 89 ce             	mov    %rcx,%rsi
  100291:	48 89 f7             	mov    %rsi,%rdi
  100294:	89 c1                	mov    %eax,%ecx
  100296:	66 f3 6f             	rep outsw (%rsi),(%dx)
  100299:	89 c8                	mov    %ecx,%eax
  10029b:	48 89 fe             	mov    %rdi,%rsi
  10029e:	48 89 75 f0          	mov    %rsi,-0x10(%rbp)
  1002a2:	89 45 f8             	mov    %eax,-0x8(%rbp)
  1002a5:	90                   	nop
  1002a6:	c9                   	leave
  1002a7:	c3                   	ret

00000000001002a8 <gdt_set_entry>:
  1002a8:	55                   	push   %rbp
  1002a9:	48 89 e5             	mov    %rsp,%rbp
  1002ac:	48 83 ec 18          	sub    $0x18,%rsp
  1002b0:	89 7d fc             	mov    %edi,-0x4(%rbp)
  1002b3:	89 75 f8             	mov    %esi,-0x8(%rbp)
  1002b6:	89 55 f4             	mov    %edx,-0xc(%rbp)
  1002b9:	89 c8                	mov    %ecx,%eax
  1002bb:	44 89 c2             	mov    %r8d,%edx
  1002be:	88 45 f0             	mov    %al,-0x10(%rbp)
  1002c1:	89 d0                	mov    %edx,%eax
  1002c3:	88 45 ec             	mov    %al,-0x14(%rbp)
  1002c6:	8b 45 f4             	mov    -0xc(%rbp),%eax
  1002c9:	89 c2                	mov    %eax,%edx
  1002cb:	8b 45 fc             	mov    -0x4(%rbp),%eax
  1002ce:	48 98                	cltq
  1002d0:	66 89 14 c5 00 20 11 	mov    %dx,0x112000(,%rax,8)
  1002d7:	00 
  1002d8:	8b 45 f8             	mov    -0x8(%rbp),%eax
  1002db:	89 c2                	mov    %eax,%edx
  1002dd:	8b 45 fc             	mov    -0x4(%rbp),%eax
  1002e0:	48 98                	cltq
  1002e2:	66 89 14 c5 02 20 11 	mov    %dx,0x112002(,%rax,8)
  1002e9:	00 
  1002ea:	8b 45 f8             	mov    -0x8(%rbp),%eax
  1002ed:	c1 e8 10             	shr    $0x10,%eax
  1002f0:	89 c2                	mov    %eax,%edx
  1002f2:	8b 45 fc             	mov    -0x4(%rbp),%eax
  1002f5:	48 98                	cltq
  1002f7:	88 14 c5 04 20 11 00 	mov    %dl,0x112004(,%rax,8)
  1002fe:	8b 45 fc             	mov    -0x4(%rbp),%eax
  100301:	48 98                	cltq
  100303:	0f b6 55 f0          	movzbl -0x10(%rbp),%edx
  100307:	88 14 c5 05 20 11 00 	mov    %dl,0x112005(,%rax,8)
  10030e:	8b 45 f4             	mov    -0xc(%rbp),%eax
  100311:	c1 e8 10             	shr    $0x10,%eax
  100314:	83 e0 0f             	and    $0xf,%eax
  100317:	89 c2                	mov    %eax,%edx
  100319:	0f b6 45 ec          	movzbl -0x14(%rbp),%eax
  10031d:	c1 e0 04             	shl    $0x4,%eax
  100320:	09 c2                	or     %eax,%edx
  100322:	8b 45 fc             	mov    -0x4(%rbp),%eax
  100325:	48 98                	cltq
  100327:	88 14 c5 06 20 11 00 	mov    %dl,0x112006(,%rax,8)
  10032e:	8b 45 f8             	mov    -0x8(%rbp),%eax
  100331:	c1 e8 18             	shr    $0x18,%eax
  100334:	89 c2                	mov    %eax,%edx
  100336:	8b 45 fc             	mov    -0x4(%rbp),%eax
  100339:	48 98                	cltq
  10033b:	88 14 c5 07 20 11 00 	mov    %dl,0x112007(,%rax,8)
  100342:	90                   	nop
  100343:	c9                   	leave
  100344:	c3                   	ret

0000000000100345 <gdt_init>:
  100345:	55                   	push   %rbp
  100346:	48 89 e5             	mov    %rsp,%rbp
  100349:	66 c7 05 e6 1c 01 00 	movw   $0x37,0x11ce6(%rip)        # 112038 <gdtr>
  100350:	37 00 
  100352:	b8 00 20 11 00       	mov    $0x112000,%eax
  100357:	48 89 05 dc 1c 01 00 	mov    %rax,0x11cdc(%rip)        # 11203a <gdtr+0x2>
  10035e:	41 b8 00 00 00 00    	mov    $0x0,%r8d
  100364:	b9 00 00 00 00       	mov    $0x0,%ecx
  100369:	ba 00 00 00 00       	mov    $0x0,%edx
  10036e:	be 00 00 00 00       	mov    $0x0,%esi
  100373:	bf 00 00 00 00       	mov    $0x0,%edi
  100378:	e8 2b ff ff ff       	call   1002a8 <gdt_set_entry>
  10037d:	41 b8 0a 00 00 00    	mov    $0xa,%r8d
  100383:	b9 9a 00 00 00       	mov    $0x9a,%ecx
  100388:	ba ff ff ff ff       	mov    $0xffffffff,%edx
  10038d:	be 00 00 00 00       	mov    $0x0,%esi
  100392:	bf 01 00 00 00       	mov    $0x1,%edi
  100397:	e8 0c ff ff ff       	call   1002a8 <gdt_set_entry>
  10039c:	41 b8 08 00 00 00    	mov    $0x8,%r8d
  1003a2:	b9 92 00 00 00       	mov    $0x92,%ecx
  1003a7:	ba ff ff ff ff       	mov    $0xffffffff,%edx
  1003ac:	be 00 00 00 00       	mov    $0x0,%esi
  1003b1:	bf 02 00 00 00       	mov    $0x2,%edi
  1003b6:	e8 ed fe ff ff       	call   1002a8 <gdt_set_entry>
  1003bb:	41 b8 08 00 00 00    	mov    $0x8,%r8d
  1003c1:	b9 f2 00 00 00       	mov    $0xf2,%ecx
  1003c6:	ba ff ff ff ff       	mov    $0xffffffff,%edx
  1003cb:	be 00 00 00 00       	mov    $0x0,%esi
  1003d0:	bf 03 00 00 00       	mov    $0x3,%edi
  1003d5:	e8 ce fe ff ff       	call   1002a8 <gdt_set_entry>
  1003da:	41 b8 0a 00 00 00    	mov    $0xa,%r8d
  1003e0:	b9 fa 00 00 00       	mov    $0xfa,%ecx
  1003e5:	ba ff ff ff ff       	mov    $0xffffffff,%edx
  1003ea:	be 00 00 00 00       	mov    $0x0,%esi
  1003ef:	bf 04 00 00 00       	mov    $0x4,%edi
  1003f4:	e8 af fe ff ff       	call   1002a8 <gdt_set_entry>
  1003f9:	0f 01 15 38 1c 01 00 	lgdt   0x11c38(%rip)        # 112038 <gdtr>
  100400:	66 b8 10 00          	mov    $0x10,%ax
  100404:	8e d8                	mov    %eax,%ds
  100406:	8e c0                	mov    %eax,%es
  100408:	8e e0                	mov    %eax,%fs
  10040a:	8e e8                	mov    %eax,%gs
  10040c:	8e d0                	mov    %eax,%ss
  10040e:	6a 08                	push   $0x8
  100410:	48 8d 05 03 00 00 00 	lea    0x3(%rip),%rax        # 10041a <gdt_init+0xd5>
  100417:	50                   	push   %rax
  100418:	48 cb                	lretq
  10041a:	90                   	nop
  10041b:	5d                   	pop    %rbp
  10041c:	c3                   	ret

000000000010041d <gdt_set_tss_entry>:
  10041d:	55                   	push   %rbp
  10041e:	48 89 e5             	mov    %rsp,%rbp
  100421:	48 83 ec 10          	sub    $0x10,%rsp
  100425:	89 7d fc             	mov    %edi,-0x4(%rbp)
  100428:	48 89 75 f0          	mov    %rsi,-0x10(%rbp)
  10042c:	89 55 f8             	mov    %edx,-0x8(%rbp)
  10042f:	8b 45 f8             	mov    -0x8(%rbp),%eax
  100432:	89 c2                	mov    %eax,%edx
  100434:	8b 45 fc             	mov    -0x4(%rbp),%eax
  100437:	48 98                	cltq
  100439:	66 89 14 c5 00 20 11 	mov    %dx,0x112000(,%rax,8)
  100440:	00 
  100441:	48 8b 45 f0          	mov    -0x10(%rbp),%rax
  100445:	89 c2                	mov    %eax,%edx
  100447:	8b 45 fc             	mov    -0x4(%rbp),%eax
  10044a:	48 98                	cltq
  10044c:	66 89 14 c5 02 20 11 	mov    %dx,0x112002(,%rax,8)
  100453:	00 
  100454:	48 8b 45 f0          	mov    -0x10(%rbp),%rax
  100458:	48 c1 e8 10          	shr    $0x10,%rax
  10045c:	89 c2                	mov    %eax,%edx
  10045e:	8b 45 fc             	mov    -0x4(%rbp),%eax
  100461:	48 98                	cltq
  100463:	88 14 c5 04 20 11 00 	mov    %dl,0x112004(,%rax,8)
  10046a:	8b 45 fc             	mov    -0x4(%rbp),%eax
  10046d:	48 98                	cltq
  10046f:	c6 04 c5 05 20 11 00 	movb   $0x89,0x112005(,%rax,8)
  100476:	89 
  100477:	8b 45 f8             	mov    -0x8(%rbp),%eax
  10047a:	c1 e8 10             	shr    $0x10,%eax
  10047d:	83 e0 0f             	and    $0xf,%eax
  100480:	89 c2                	mov    %eax,%edx
  100482:	8b 45 fc             	mov    -0x4(%rbp),%eax
  100485:	48 98                	cltq
  100487:	88 14 c5 06 20 11 00 	mov    %dl,0x112006(,%rax,8)
  10048e:	48 8b 45 f0          	mov    -0x10(%rbp),%rax
  100492:	48 c1 e8 18          	shr    $0x18,%rax
  100496:	89 c2                	mov    %eax,%edx
  100498:	8b 45 fc             	mov    -0x4(%rbp),%eax
  10049b:	48 98                	cltq
  10049d:	88 14 c5 07 20 11 00 	mov    %dl,0x112007(,%rax,8)
  1004a4:	48 8b 45 f0          	mov    -0x10(%rbp),%rax
  1004a8:	48 c1 e8 20          	shr    $0x20,%rax
  1004ac:	48 89 c2             	mov    %rax,%rdx
  1004af:	8b 45 fc             	mov    -0x4(%rbp),%eax
  1004b2:	83 c0 01             	add    $0x1,%eax
  1004b5:	48 98                	cltq
  1004b7:	66 89 14 c5 00 20 11 	mov    %dx,0x112000(,%rax,8)
  1004be:	00 
  1004bf:	48 8b 45 f0          	mov    -0x10(%rbp),%rax
  1004c3:	48 c1 e8 30          	shr    $0x30,%rax
  1004c7:	48 89 c2             	mov    %rax,%rdx
  1004ca:	8b 45 fc             	mov    -0x4(%rbp),%eax
  1004cd:	83 c0 01             	add    $0x1,%eax
  1004d0:	48 98                	cltq
  1004d2:	66 89 14 c5 02 20 11 	mov    %dx,0x112002(,%rax,8)
  1004d9:	00 
  1004da:	8b 45 fc             	mov    -0x4(%rbp),%eax
  1004dd:	83 c0 01             	add    $0x1,%eax
  1004e0:	48 98                	cltq
  1004e2:	c6 04 c5 04 20 11 00 	movb   $0x0,0x112004(,%rax,8)
  1004e9:	00 
  1004ea:	8b 45 fc             	mov    -0x4(%rbp),%eax
  1004ed:	83 c0 01             	add    $0x1,%eax
  1004f0:	48 98                	cltq
  1004f2:	c6 04 c5 05 20 11 00 	movb   $0x0,0x112005(,%rax,8)
  1004f9:	00 
  1004fa:	8b 45 fc             	mov    -0x4(%rbp),%eax
  1004fd:	83 c0 01             	add    $0x1,%eax
  100500:	48 98                	cltq
  100502:	c6 04 c5 06 20 11 00 	movb   $0x0,0x112006(,%rax,8)
  100509:	00 
  10050a:	8b 45 fc             	mov    -0x4(%rbp),%eax
  10050d:	83 c0 01             	add    $0x1,%eax
  100510:	48 98                	cltq
  100512:	c6 04 c5 07 20 11 00 	movb   $0x0,0x112007(,%rax,8)
  100519:	00 
  10051a:	90                   	nop
  10051b:	c9                   	leave
  10051c:	c3                   	ret

000000000010051d <gdt_print_gdt>:
  10051d:	55                   	push   %rbp
  10051e:	48 89 e5             	mov    %rsp,%rbp
  100521:	48 83 ec 10          	sub    $0x10,%rsp
  100525:	c7 45 fc 00 00 00 00 	movl   $0x0,-0x4(%rbp)
  10052c:	eb 5e                	jmp    10058c <gdt_print_gdt+0x6f>
  10052e:	8b 45 fc             	mov    -0x4(%rbp),%eax
  100531:	48 98                	cltq
  100533:	0f b6 04 c5 05 20 11 	movzbl 0x112005(,%rax,8),%eax
  10053a:	00 
  10053b:	0f b6 f8             	movzbl %al,%edi
  10053e:	8b 45 fc             	mov    -0x4(%rbp),%eax
  100541:	48 98                	cltq
  100543:	0f b6 04 c5 04 20 11 	movzbl 0x112004(,%rax,8),%eax
  10054a:	00 
  10054b:	0f b6 f0             	movzbl %al,%esi
  10054e:	8b 45 fc             	mov    -0x4(%rbp),%eax
  100551:	48 98                	cltq
  100553:	0f b7 04 c5 02 20 11 	movzwl 0x112002(,%rax,8),%eax
  10055a:	00 
  10055b:	0f b7 c8             	movzwl %ax,%ecx
  10055e:	8b 45 fc             	mov    -0x4(%rbp),%eax
  100561:	48 98                	cltq
  100563:	0f b7 04 c5 00 20 11 	movzwl 0x112000(,%rax,8),%eax
  10056a:	00 
  10056b:	0f b7 d0             	movzwl %ax,%edx
  10056e:	8b 45 fc             	mov    -0x4(%rbp),%eax
  100571:	41 89 f9             	mov    %edi,%r9d
  100574:	41 89 f0             	mov    %esi,%r8d
  100577:	89 c6                	mov    %eax,%esi
  100579:	bf 08 4e 10 00       	mov    $0x104e08,%edi
  10057e:	b8 00 00 00 00       	mov    $0x0,%eax
  100583:	e8 66 0a 00 00       	call   100fee <kprintf>
  100588:	83 45 fc 01          	addl   $0x1,-0x4(%rbp)
  10058c:	83 7d fc 06          	cmpl   $0x6,-0x4(%rbp)
  100590:	7e 9c                	jle    10052e <gdt_print_gdt+0x11>
  100592:	90                   	nop
  100593:	90                   	nop
  100594:	c9                   	leave
  100595:	c3                   	ret

0000000000100596 <tss_init>:
  100596:	55                   	push   %rbp
  100597:	48 89 e5             	mov    %rsp,%rbp
  10059a:	ba 68 00 00 00       	mov    $0x68,%edx
  10059f:	be 00 00 00 00       	mov    $0x0,%esi
  1005a4:	bf 50 40 11 00       	mov    $0x114050,%edi
  1005a9:	e8 7b 3d 00 00       	call   104329 <memset>
  1005ae:	b8 50 40 11 00       	mov    $0x114050,%eax
  1005b3:	48 89 05 9a 3a 01 00 	mov    %rax,0x13a9a(%rip)        # 114054 <tss_entry+0x4>
  1005ba:	b8 50 40 11 00       	mov    $0x114050,%eax
  1005bf:	ba 67 00 00 00       	mov    $0x67,%edx
  1005c4:	48 89 c6             	mov    %rax,%rsi
  1005c7:	bf 05 00 00 00       	mov    $0x5,%edi
  1005cc:	e8 4c fe ff ff       	call   10041d <gdt_set_tss_entry>
  1005d1:	b8 28 00 00 00       	mov    $0x28,%eax
  1005d6:	0f 00 d8             	ltr    %eax
  1005d9:	90                   	nop
  1005da:	5d                   	pop    %rbp
  1005db:	c3                   	ret

00000000001005dc <idt_set_entry>:
  1005dc:	55                   	push   %rbp
  1005dd:	48 89 e5             	mov    %rsp,%rbp
  1005e0:	48 83 ec 18          	sub    $0x18,%rsp
  1005e4:	89 7d fc             	mov    %edi,-0x4(%rbp)
  1005e7:	48 89 75 f0          	mov    %rsi,-0x10(%rbp)
  1005eb:	89 c8                	mov    %ecx,%eax
  1005ed:	44 89 c1             	mov    %r8d,%ecx
  1005f0:	66 89 55 f8          	mov    %dx,-0x8(%rbp)
  1005f4:	88 45 ec             	mov    %al,-0x14(%rbp)
  1005f7:	89 c8                	mov    %ecx,%eax
  1005f9:	88 45 e8             	mov    %al,-0x18(%rbp)
  1005fc:	48 8b 45 f0          	mov    -0x10(%rbp),%rax
  100600:	89 c2                	mov    %eax,%edx
  100602:	8b 45 fc             	mov    -0x4(%rbp),%eax
  100605:	48 98                	cltq
  100607:	48 c1 e0 04          	shl    $0x4,%rax
  10060b:	48 05 c0 40 11 00    	add    $0x1140c0,%rax
  100611:	66 89 10             	mov    %dx,(%rax)
  100614:	8b 45 fc             	mov    -0x4(%rbp),%eax
  100617:	48 98                	cltq
  100619:	48 c1 e0 04          	shl    $0x4,%rax
  10061d:	48 8d 90 c2 40 11 00 	lea    0x1140c2(%rax),%rdx
  100624:	0f b7 45 f8          	movzwl -0x8(%rbp),%eax
  100628:	66 89 02             	mov    %ax,(%rdx)
  10062b:	0f b6 45 e8          	movzbl -0x18(%rbp),%eax
  10062f:	83 e0 07             	and    $0x7,%eax
  100632:	89 c2                	mov    %eax,%edx
  100634:	8b 45 fc             	mov    -0x4(%rbp),%eax
  100637:	48 98                	cltq
  100639:	48 c1 e0 04          	shl    $0x4,%rax
  10063d:	48 05 c4 40 11 00    	add    $0x1140c4,%rax
  100643:	88 10                	mov    %dl,(%rax)
  100645:	8b 45 fc             	mov    -0x4(%rbp),%eax
  100648:	48 98                	cltq
  10064a:	48 c1 e0 04          	shl    $0x4,%rax
  10064e:	48 8d 90 c5 40 11 00 	lea    0x1140c5(%rax),%rdx
  100655:	0f b6 45 ec          	movzbl -0x14(%rbp),%eax
  100659:	88 02                	mov    %al,(%rdx)
  10065b:	48 8b 45 f0          	mov    -0x10(%rbp),%rax
  10065f:	48 c1 e8 10          	shr    $0x10,%rax
  100663:	89 c2                	mov    %eax,%edx
  100665:	8b 45 fc             	mov    -0x4(%rbp),%eax
  100668:	48 98                	cltq
  10066a:	48 c1 e0 04          	shl    $0x4,%rax
  10066e:	48 05 c6 40 11 00    	add    $0x1140c6,%rax
  100674:	66 89 10             	mov    %dx,(%rax)
  100677:	48 8b 45 f0          	mov    -0x10(%rbp),%rax
  10067b:	48 c1 e8 20          	shr    $0x20,%rax
  10067f:	89 c2                	mov    %eax,%edx
  100681:	8b 45 fc             	mov    -0x4(%rbp),%eax
  100684:	48 98                	cltq
  100686:	48 c1 e0 04          	shl    $0x4,%rax
  10068a:	48 05 c8 40 11 00    	add    $0x1140c8,%rax
  100690:	89 10                	mov    %edx,(%rax)
  100692:	8b 45 fc             	mov    -0x4(%rbp),%eax
  100695:	48 98                	cltq
  100697:	48 c1 e0 04          	shl    $0x4,%rax
  10069b:	48 05 cc 40 11 00    	add    $0x1140cc,%rax
  1006a1:	c7 00 00 00 00 00    	movl   $0x0,(%rax)
  1006a7:	90                   	nop
  1006a8:	c9                   	leave
  1006a9:	c3                   	ret

00000000001006aa <idt_load>:
  1006aa:	55                   	push   %rbp
  1006ab:	48 89 e5             	mov    %rsp,%rbp
  1006ae:	66 c7 05 09 4a 01 00 	movw   $0xfff,0x14a09(%rip)        # 1150c0 <idtr>
  1006b5:	ff 0f 
  1006b7:	b8 c0 40 11 00       	mov    $0x1140c0,%eax
  1006bc:	48 89 05 ff 49 01 00 	mov    %rax,0x149ff(%rip)        # 1150c2 <idtr+0x2>
  1006c3:	0f 01 1d f6 49 01 00 	lidt   0x149f6(%rip)        # 1150c0 <idtr>
  1006ca:	90                   	nop
  1006cb:	5d                   	pop    %rbp
  1006cc:	c3                   	ret

00000000001006cd <idt_init>:
  1006cd:	55                   	push   %rbp
  1006ce:	48 89 e5             	mov    %rsp,%rbp
  1006d1:	48 83 ec 10          	sub    $0x10,%rsp
  1006d5:	c7 45 fc 00 00 00 00 	movl   $0x0,-0x4(%rbp)
  1006dc:	eb 2e                	jmp    10070c <idt_init+0x3f>
  1006de:	8b 45 fc             	mov    -0x4(%rbp),%eax
  1006e1:	48 98                	cltq
  1006e3:	48 8b 04 c5 34 51 10 	mov    0x105134(,%rax,8),%rax
  1006ea:	00 
  1006eb:	48 89 c6             	mov    %rax,%rsi
  1006ee:	8b 45 fc             	mov    -0x4(%rbp),%eax
  1006f1:	41 b8 00 00 00 00    	mov    $0x0,%r8d
  1006f7:	b9 8e 00 00 00       	mov    $0x8e,%ecx
  1006fc:	ba 08 00 00 00       	mov    $0x8,%edx
  100701:	89 c7                	mov    %eax,%edi
  100703:	e8 d4 fe ff ff       	call   1005dc <idt_set_entry>
  100708:	83 45 fc 01          	addl   $0x1,-0x4(%rbp)
  10070c:	81 7d fc ff 00 00 00 	cmpl   $0xff,-0x4(%rbp)
  100713:	7e c9                	jle    1006de <idt_init+0x11>
  100715:	e8 c0 03 00 00       	call   100ada <isr_install>
  10071a:	e8 9d 01 00 00       	call   1008bc <irq_install>
  10071f:	e8 86 ff ff ff       	call   1006aa <idt_load>
  100724:	bf 2e 4e 10 00       	mov    $0x104e2e,%edi
  100729:	b8 00 00 00 00       	mov    $0x0,%eax
  10072e:	e8 bb 08 00 00       	call   100fee <kprintf>
  100733:	90                   	nop
  100734:	c9                   	leave
  100735:	c3                   	ret

0000000000100736 <pic_remap>:
  100736:	55                   	push   %rbp
  100737:	48 89 e5             	mov    %rsp,%rbp
  10073a:	48 83 ec 10          	sub    $0x10,%rsp
  10073e:	bf 21 00 00 00       	mov    $0x21,%edi
  100743:	e8 35 fa ff ff       	call   10017d <inb>
  100748:	88 45 ff             	mov    %al,-0x1(%rbp)
  10074b:	bf a1 00 00 00       	mov    $0xa1,%edi
  100750:	e8 28 fa ff ff       	call   10017d <inb>
  100755:	88 45 fe             	mov    %al,-0x2(%rbp)
  100758:	be 11 00 00 00       	mov    $0x11,%esi
  10075d:	bf 20 00 00 00       	mov    $0x20,%edi
  100762:	e8 34 fa ff ff       	call   10019b <outb>
  100767:	be 11 00 00 00       	mov    $0x11,%esi
  10076c:	bf a0 00 00 00       	mov    $0xa0,%edi
  100771:	e8 25 fa ff ff       	call   10019b <outb>
  100776:	be 20 00 00 00       	mov    $0x20,%esi
  10077b:	bf 21 00 00 00       	mov    $0x21,%edi
  100780:	e8 16 fa ff ff       	call   10019b <outb>
  100785:	be 28 00 00 00       	mov    $0x28,%esi
  10078a:	bf a1 00 00 00       	mov    $0xa1,%edi
  10078f:	e8 07 fa ff ff       	call   10019b <outb>
  100794:	be 04 00 00 00       	mov    $0x4,%esi
  100799:	bf 21 00 00 00       	mov    $0x21,%edi
  10079e:	e8 f8 f9 ff ff       	call   10019b <outb>
  1007a3:	be 02 00 00 00       	mov    $0x2,%esi
  1007a8:	bf a1 00 00 00       	mov    $0xa1,%edi
  1007ad:	e8 e9 f9 ff ff       	call   10019b <outb>
  1007b2:	be 01 00 00 00       	mov    $0x1,%esi
  1007b7:	bf 21 00 00 00       	mov    $0x21,%edi
  1007bc:	e8 da f9 ff ff       	call   10019b <outb>
  1007c1:	be 01 00 00 00       	mov    $0x1,%esi
  1007c6:	bf a1 00 00 00       	mov    $0xa1,%edi
  1007cb:	e8 cb f9 ff ff       	call   10019b <outb>
  1007d0:	0f b6 45 ff          	movzbl -0x1(%rbp),%eax
  1007d4:	89 c6                	mov    %eax,%esi
  1007d6:	bf 21 00 00 00       	mov    $0x21,%edi
  1007db:	e8 bb f9 ff ff       	call   10019b <outb>
  1007e0:	0f b6 45 fe          	movzbl -0x2(%rbp),%eax
  1007e4:	89 c6                	mov    %eax,%esi
  1007e6:	bf a1 00 00 00       	mov    $0xa1,%edi
  1007eb:	e8 ab f9 ff ff       	call   10019b <outb>
  1007f0:	90                   	nop
  1007f1:	c9                   	leave
  1007f2:	c3                   	ret

00000000001007f3 <irq_handler>:
  1007f3:	55                   	push   %rbp
  1007f4:	48 89 e5             	mov    %rsp,%rbp
  1007f7:	48 83 ec 20          	sub    $0x20,%rsp
  1007fb:	48 89 7d e8          	mov    %rdi,-0x18(%rbp)
  1007ff:	48 8b 45 e8          	mov    -0x18(%rbp),%rax
  100803:	48 8b 00             	mov    (%rax),%rax
  100806:	83 e8 20             	sub    $0x20,%eax
  100809:	89 45 fc             	mov    %eax,-0x4(%rbp)
  10080c:	8b 45 fc             	mov    -0x4(%rbp),%eax
  10080f:	48 98                	cltq
  100811:	48 8b 04 c5 e0 50 11 	mov    0x1150e0(,%rax,8),%rax
  100818:	00 
  100819:	48 85 c0             	test   %rax,%rax
  10081c:	74 16                	je     100834 <irq_handler+0x41>
  10081e:	8b 45 fc             	mov    -0x4(%rbp),%eax
  100821:	48 98                	cltq
  100823:	48 8b 14 c5 e0 50 11 	mov    0x1150e0(,%rax,8),%rdx
  10082a:	00 
  10082b:	48 8b 45 e8          	mov    -0x18(%rbp),%rax
  10082f:	48 89 c7             	mov    %rax,%rdi
  100832:	ff d2                	call   *%rdx
  100834:	83 7d fc 07          	cmpl   $0x7,-0x4(%rbp)
  100838:	7e 0f                	jle    100849 <irq_handler+0x56>
  10083a:	be 20 00 00 00       	mov    $0x20,%esi
  10083f:	bf a0 00 00 00       	mov    $0xa0,%edi
  100844:	e8 52 f9 ff ff       	call   10019b <outb>
  100849:	be 20 00 00 00       	mov    $0x20,%esi
  10084e:	bf 20 00 00 00       	mov    $0x20,%edi
  100853:	e8 43 f9 ff ff       	call   10019b <outb>
  100858:	90                   	nop
  100859:	c9                   	leave
  10085a:	c3                   	ret

000000000010085b <irq_ack>:
  10085b:	55                   	push   %rbp
  10085c:	48 89 e5             	mov    %rsp,%rbp
  10085f:	48 83 ec 10          	sub    $0x10,%rsp
  100863:	89 7d fc             	mov    %edi,-0x4(%rbp)
  100866:	83 7d fc 07          	cmpl   $0x7,-0x4(%rbp)
  10086a:	7e 0f                	jle    10087b <irq_ack+0x20>
  10086c:	be 20 00 00 00       	mov    $0x20,%esi
  100871:	bf a0 00 00 00       	mov    $0xa0,%edi
  100876:	e8 20 f9 ff ff       	call   10019b <outb>
  10087b:	be 20 00 00 00       	mov    $0x20,%esi
  100880:	bf 20 00 00 00       	mov    $0x20,%edi
  100885:	e8 11 f9 ff ff       	call   10019b <outb>
  10088a:	90                   	nop
  10088b:	c9                   	leave
  10088c:	c3                   	ret

000000000010088d <register_irq_handler>:
  10088d:	55                   	push   %rbp
  10088e:	48 89 e5             	mov    %rsp,%rbp
  100891:	48 83 ec 10          	sub    $0x10,%rsp
  100895:	89 7d fc             	mov    %edi,-0x4(%rbp)
  100898:	48 89 75 f0          	mov    %rsi,-0x10(%rbp)
  10089c:	83 7d fc 00          	cmpl   $0x0,-0x4(%rbp)
  1008a0:	78 17                	js     1008b9 <register_irq_handler+0x2c>
  1008a2:	83 7d fc 0f          	cmpl   $0xf,-0x4(%rbp)
  1008a6:	7f 11                	jg     1008b9 <register_irq_handler+0x2c>
  1008a8:	8b 45 fc             	mov    -0x4(%rbp),%eax
  1008ab:	48 98                	cltq
  1008ad:	48 8b 55 f0          	mov    -0x10(%rbp),%rdx
  1008b1:	48 89 14 c5 e0 50 11 	mov    %rdx,0x1150e0(,%rax,8)
  1008b8:	00 
  1008b9:	90                   	nop
  1008ba:	c9                   	leave
  1008bb:	c3                   	ret

00000000001008bc <irq_install>:
  1008bc:	55                   	push   %rbp
  1008bd:	48 89 e5             	mov    %rsp,%rbp
  1008c0:	e8 71 fe ff ff       	call   100736 <pic_remap>
  1008c5:	be 00 00 00 00       	mov    $0x0,%esi
  1008ca:	bf 21 00 00 00       	mov    $0x21,%edi
  1008cf:	e8 c7 f8 ff ff       	call   10019b <outb>
  1008d4:	be 00 00 00 00       	mov    $0x0,%esi
  1008d9:	bf a1 00 00 00       	mov    $0xa1,%edi
  1008de:	e8 b8 f8 ff ff       	call   10019b <outb>
  1008e3:	bf 3f 4e 10 00       	mov    $0x104e3f,%edi
  1008e8:	b8 00 00 00 00       	mov    $0x0,%eax
  1008ed:	e8 fc 06 00 00       	call   100fee <kprintf>
  1008f2:	90                   	nop
  1008f3:	5d                   	pop    %rbp
  1008f4:	c3                   	ret

00000000001008f5 <exception_name>:
  1008f5:	55                   	push   %rbp
  1008f6:	48 89 e5             	mov    %rsp,%rbp
  1008f9:	48 83 ec 08          	sub    $0x8,%rsp
  1008fd:	89 7d fc             	mov    %edi,-0x4(%rbp)
  100900:	83 7d fc 1e          	cmpl   $0x1e,-0x4(%rbp)
  100904:	7f 0f                	jg     100915 <exception_name+0x20>
  100906:	8b 45 fc             	mov    -0x4(%rbp),%eax
  100909:	48 98                	cltq
  10090b:	48 8b 04 c5 20 64 10 	mov    0x106420(,%rax,8),%rax
  100912:	00 
  100913:	eb 05                	jmp    10091a <exception_name+0x25>
  100915:	b8 50 4e 10 00       	mov    $0x104e50,%eax
  10091a:	c9                   	leave
  10091b:	c3                   	ret

000000000010091c <exception_handler>:
  10091c:	55                   	push   %rbp
  10091d:	48 89 e5             	mov    %rsp,%rbp
  100920:	53                   	push   %rbx
  100921:	48 83 ec 18          	sub    $0x18,%rsp
  100925:	48 89 7d e8          	mov    %rdi,-0x18(%rbp)
  100929:	48 8b 45 e8          	mov    -0x18(%rbp),%rax
  10092d:	48 8b 18             	mov    (%rax),%rbx
  100930:	48 8b 45 e8          	mov    -0x18(%rbp),%rax
  100934:	48 8b 00             	mov    (%rax),%rax
  100937:	89 c7                	mov    %eax,%edi
  100939:	e8 b7 ff ff ff       	call   1008f5 <exception_name>
  10093e:	48 89 da             	mov    %rbx,%rdx
  100941:	48 89 c6             	mov    %rax,%rsi
  100944:	bf 62 4e 10 00       	mov    $0x104e62,%edi
  100949:	b8 00 00 00 00       	mov    $0x0,%eax
  10094e:	e8 9b 06 00 00       	call   100fee <kprintf>
  100953:	48 8b 45 e8          	mov    -0x18(%rbp),%rax
  100957:	48 8b 40 08          	mov    0x8(%rax),%rax
  10095b:	48 89 c6             	mov    %rax,%rsi
  10095e:	bf 77 4e 10 00       	mov    $0x104e77,%edi
  100963:	b8 00 00 00 00       	mov    $0x0,%eax
  100968:	e8 81 06 00 00       	call   100fee <kprintf>
  10096d:	48 8b 45 e8          	mov    -0x18(%rbp),%rax
  100971:	48 8b 90 a0 00 00 00 	mov    0xa0(%rax),%rdx
  100978:	48 8b 45 e8          	mov    -0x18(%rbp),%rax
  10097c:	48 8b 80 88 00 00 00 	mov    0x88(%rax),%rax
  100983:	48 89 c6             	mov    %rax,%rsi
  100986:	bf 89 4e 10 00       	mov    $0x104e89,%edi
  10098b:	b8 00 00 00 00       	mov    $0x0,%eax
  100990:	e8 59 06 00 00       	call   100fee <kprintf>
  100995:	48 8b 45 e8          	mov    -0x18(%rbp),%rax
  100999:	48 8b 90 98 00 00 00 	mov    0x98(%rax),%rdx
  1009a0:	48 8b 45 e8          	mov    -0x18(%rbp),%rax
  1009a4:	48 8b 80 90 00 00 00 	mov    0x90(%rax),%rax
  1009ab:	48 89 c6             	mov    %rax,%rsi
  1009ae:	bf 9f 4e 10 00       	mov    $0x104e9f,%edi
  1009b3:	b8 00 00 00 00       	mov    $0x0,%eax
  1009b8:	e8 31 06 00 00       	call   100fee <kprintf>
  1009bd:	48 8b 45 e8          	mov    -0x18(%rbp),%rax
  1009c1:	48 8b 70 70          	mov    0x70(%rax),%rsi
  1009c5:	48 8b 45 e8          	mov    -0x18(%rbp),%rax
  1009c9:	48 8b 48 78          	mov    0x78(%rax),%rcx
  1009cd:	48 8b 45 e8          	mov    -0x18(%rbp),%rax
  1009d1:	48 8b 50 68          	mov    0x68(%rax),%rdx
  1009d5:	48 8b 45 e8          	mov    -0x18(%rbp),%rax
  1009d9:	48 8b 80 80 00 00 00 	mov    0x80(%rax),%rax
  1009e0:	49 89 f0             	mov    %rsi,%r8
  1009e3:	48 89 c6             	mov    %rax,%rsi
  1009e6:	bf b8 4e 10 00       	mov    $0x104eb8,%edi
  1009eb:	b8 00 00 00 00       	mov    $0x0,%eax
  1009f0:	e8 f9 05 00 00       	call   100fee <kprintf>
  1009f5:	48 8b 45 e8          	mov    -0x18(%rbp),%rax
  1009f9:	48 8b 48 60          	mov    0x60(%rax),%rcx
  1009fd:	48 8b 45 e8          	mov    -0x18(%rbp),%rax
  100a01:	48 8b 50 50          	mov    0x50(%rax),%rdx
  100a05:	48 8b 45 e8          	mov    -0x18(%rbp),%rax
  100a09:	48 8b 40 58          	mov    0x58(%rax),%rax
  100a0d:	48 89 c6             	mov    %rax,%rsi
  100a10:	bf e8 4e 10 00       	mov    $0x104ee8,%edi
  100a15:	b8 00 00 00 00       	mov    $0x0,%eax
  100a1a:	e8 cf 05 00 00       	call   100fee <kprintf>
  100a1f:	bf 09 4f 10 00       	mov    $0x104f09,%edi
  100a24:	e8 7f 38 00 00       	call   1042a8 <panic>
  100a29:	90                   	nop
  100a2a:	48 8b 5d f8          	mov    -0x8(%rbp),%rbx
  100a2e:	c9                   	leave
  100a2f:	c3                   	ret

0000000000100a30 <register_interrupt_handler>:
  100a30:	55                   	push   %rbp
  100a31:	48 89 e5             	mov    %rsp,%rbp
  100a34:	48 83 ec 10          	sub    $0x10,%rsp
  100a38:	89 7d fc             	mov    %edi,-0x4(%rbp)
  100a3b:	48 89 75 f0          	mov    %rsi,-0x10(%rbp)
  100a3f:	81 7d fc ff 00 00 00 	cmpl   $0xff,-0x4(%rbp)
  100a46:	7f 11                	jg     100a59 <register_interrupt_handler+0x29>
  100a48:	8b 45 fc             	mov    -0x4(%rbp),%eax
  100a4b:	48 98                	cltq
  100a4d:	48 8b 55 f0          	mov    -0x10(%rbp),%rdx
  100a51:	48 89 14 c5 60 51 11 	mov    %rdx,0x115160(,%rax,8)
  100a58:	00 
  100a59:	90                   	nop
  100a5a:	c9                   	leave
  100a5b:	c3                   	ret

0000000000100a5c <isr_handler>:
  100a5c:	55                   	push   %rbp
  100a5d:	48 89 e5             	mov    %rsp,%rbp
  100a60:	48 83 ec 10          	sub    $0x10,%rsp
  100a64:	48 89 7d f8          	mov    %rdi,-0x8(%rbp)
  100a68:	48 8b 45 f8          	mov    -0x8(%rbp),%rax
  100a6c:	48 8b 00             	mov    (%rax),%rax
  100a6f:	48 8b 04 c5 60 51 11 	mov    0x115160(,%rax,8),%rax
  100a76:	00 
  100a77:	48 85 c0             	test   %rax,%rax
  100a7a:	74 1a                	je     100a96 <isr_handler+0x3a>
  100a7c:	48 8b 45 f8          	mov    -0x8(%rbp),%rax
  100a80:	48 8b 00             	mov    (%rax),%rax
  100a83:	48 8b 14 c5 60 51 11 	mov    0x115160(,%rax,8),%rdx
  100a8a:	00 
  100a8b:	48 8b 45 f8          	mov    -0x8(%rbp),%rax
  100a8f:	48 89 c7             	mov    %rax,%rdi
  100a92:	ff d2                	call   *%rdx
  100a94:	eb 41                	jmp    100ad7 <isr_handler+0x7b>
  100a96:	48 8b 45 f8          	mov    -0x8(%rbp),%rax
  100a9a:	48 8b 00             	mov    (%rax),%rax
  100a9d:	48 83 f8 1f          	cmp    $0x1f,%rax
  100aa1:	77 0e                	ja     100ab1 <isr_handler+0x55>
  100aa3:	48 8b 45 f8          	mov    -0x8(%rbp),%rax
  100aa7:	48 89 c7             	mov    %rax,%rdi
  100aaa:	e8 6d fe ff ff       	call   10091c <exception_handler>
  100aaf:	eb 26                	jmp    100ad7 <isr_handler+0x7b>
  100ab1:	48 8b 45 f8          	mov    -0x8(%rbp),%rax
  100ab5:	48 8b 00             	mov    (%rax),%rax
  100ab8:	48 83 f8 1f          	cmp    $0x1f,%rax
  100abc:	76 19                	jbe    100ad7 <isr_handler+0x7b>
  100abe:	48 8b 45 f8          	mov    -0x8(%rbp),%rax
  100ac2:	48 8b 00             	mov    (%rax),%rax
  100ac5:	48 83 f8 2f          	cmp    $0x2f,%rax
  100ac9:	77 0c                	ja     100ad7 <isr_handler+0x7b>
  100acb:	48 8b 45 f8          	mov    -0x8(%rbp),%rax
  100acf:	48 89 c7             	mov    %rax,%rdi
  100ad2:	e8 1c fd ff ff       	call   1007f3 <irq_handler>
  100ad7:	90                   	nop
  100ad8:	c9                   	leave
  100ad9:	c3                   	ret

0000000000100ada <isr_install>:
  100ada:	55                   	push   %rbp
  100adb:	48 89 e5             	mov    %rsp,%rbp
  100ade:	48 83 ec 10          	sub    $0x10,%rsp
  100ae2:	c7 45 fc 00 00 00 00 	movl   $0x0,-0x4(%rbp)
  100ae9:	eb 13                	jmp    100afe <isr_install+0x24>
  100aeb:	8b 45 fc             	mov    -0x4(%rbp),%eax
  100aee:	be 1c 09 10 00       	mov    $0x10091c,%esi
  100af3:	89 c7                	mov    %eax,%edi
  100af5:	e8 36 ff ff ff       	call   100a30 <register_interrupt_handler>
  100afa:	83 45 fc 01          	addl   $0x1,-0x4(%rbp)
  100afe:	83 7d fc 1f          	cmpl   $0x1f,-0x4(%rbp)
  100b02:	7e e7                	jle    100aeb <isr_install+0x11>
  100b04:	bf 1d 4f 10 00       	mov    $0x104f1d,%edi
  100b09:	b8 00 00 00 00       	mov    $0x0,%eax
  100b0e:	e8 db 04 00 00       	call   100fee <kprintf>
  100b13:	90                   	nop
  100b14:	c9                   	leave
  100b15:	c3                   	ret

0000000000100b16 <io_delay>:
  100b16:	55                   	push   %rbp
  100b17:	48 89 e5             	mov    %rsp,%rbp
  100b1a:	b8 00 00 00 00       	mov    $0x0,%eax
  100b1f:	e6 80                	out    %al,$0x80
  100b21:	90                   	nop
  100b22:	5d                   	pop    %rbp
  100b23:	c3                   	ret
  100b24:	55                   	push   %rbp
  100b25:	48 89 e5             	mov    %rsp,%rbp
  100b28:	48 83 ec 08          	sub    $0x8,%rsp
  100b2c:	89 fa                	mov    %edi,%edx
  100b2e:	89 f0                	mov    %esi,%eax
  100b30:	66 89 55 fc          	mov    %dx,-0x4(%rbp)
  100b34:	88 45 f8             	mov    %al,-0x8(%rbp)
  100b37:	0f b6 45 f8          	movzbl -0x8(%rbp),%eax
  100b3b:	0f b7 55 fc          	movzwl -0x4(%rbp),%edx
  100b3f:	ee                   	out    %al,(%dx)
  100b40:	90                   	nop
  100b41:	c9                   	leave
  100b42:	c3                   	ret
  100b43:	55                   	push   %rbp
  100b44:	48 89 e5             	mov    %rsp,%rbp
  100b47:	48 83 ec 18          	sub    $0x18,%rsp
  100b4b:	89 f8                	mov    %edi,%eax
  100b4d:	66 89 45 ec          	mov    %ax,-0x14(%rbp)
  100b51:	0f b7 45 ec          	movzwl -0x14(%rbp),%eax
  100b55:	89 c2                	mov    %eax,%edx
  100b57:	ec                   	in     (%dx),%al
  100b58:	88 45 ff             	mov    %al,-0x1(%rbp)
  100b5b:	0f b6 45 ff          	movzbl -0x1(%rbp),%eax
  100b5f:	c9                   	leave
  100b60:	c3                   	ret
  100b61:	55                   	push   %rbp
  100b62:	48 89 e5             	mov    %rsp,%rbp
  100b65:	48 83 ec 18          	sub    $0x18,%rsp
  100b69:	89 f8                	mov    %edi,%eax
  100b6b:	66 89 45 ec          	mov    %ax,-0x14(%rbp)
  100b6f:	0f b7 45 ec          	movzwl -0x14(%rbp),%eax
  100b73:	89 c2                	mov    %eax,%edx
  100b75:	66 ed                	in     (%dx),%ax
  100b77:	66 89 45 fe          	mov    %ax,-0x2(%rbp)
  100b7b:	0f b7 45 fe          	movzwl -0x2(%rbp),%eax
  100b7f:	c9                   	leave
  100b80:	c3                   	ret
  100b81:	55                   	push   %rbp
  100b82:	48 89 e5             	mov    %rsp,%rbp
  100b85:	48 83 ec 18          	sub    $0x18,%rsp
  100b89:	89 f8                	mov    %edi,%eax
  100b8b:	66 89 45 ec          	mov    %ax,-0x14(%rbp)
  100b8f:	0f b7 45 ec          	movzwl -0x14(%rbp),%eax
  100b93:	89 c2                	mov    %eax,%edx
  100b95:	ed                   	in     (%dx),%eax
  100b96:	89 45 fc             	mov    %eax,-0x4(%rbp)
  100b99:	8b 45 fc             	mov    -0x4(%rbp),%eax
  100b9c:	c9                   	leave
  100b9d:	c3                   	ret
  100b9e:	55                   	push   %rbp
  100b9f:	48 89 e5             	mov    %rsp,%rbp
  100ba2:	48 83 ec 08          	sub    $0x8,%rsp
  100ba6:	89 fa                	mov    %edi,%edx
  100ba8:	89 f0                	mov    %esi,%eax
  100baa:	66 89 55 fc          	mov    %dx,-0x4(%rbp)
  100bae:	66 89 45 f8          	mov    %ax,-0x8(%rbp)
  100bb2:	0f b7 45 f8          	movzwl -0x8(%rbp),%eax
  100bb6:	0f b7 55 fc          	movzwl -0x4(%rbp),%edx
  100bba:	66 ef                	out    %ax,(%dx)
  100bbc:	90                   	nop
  100bbd:	c9                   	leave
  100bbe:	c3                   	ret
  100bbf:	55                   	push   %rbp
  100bc0:	48 89 e5             	mov    %rsp,%rbp
  100bc3:	48 83 ec 08          	sub    $0x8,%rsp
  100bc7:	89 f8                	mov    %edi,%eax
  100bc9:	89 75 f8             	mov    %esi,-0x8(%rbp)
  100bcc:	66 89 45 fc          	mov    %ax,-0x4(%rbp)
  100bd0:	8b 45 f8             	mov    -0x8(%rbp),%eax
  100bd3:	0f b7 55 fc          	movzwl -0x4(%rbp),%edx
  100bd7:	ef                   	out    %eax,(%dx)
  100bd8:	90                   	nop
  100bd9:	c9                   	leave
  100bda:	c3                   	ret

0000000000100bdb <vga_cell>:
  100bdb:	55                   	push   %rbp
  100bdc:	48 89 e5             	mov    %rsp,%rbp
  100bdf:	48 83 ec 08          	sub    $0x8,%rsp
  100be3:	89 7d fc             	mov    %edi,-0x4(%rbp)
  100be6:	89 75 f8             	mov    %esi,-0x8(%rbp)
  100be9:	8b 55 f8             	mov    -0x8(%rbp),%edx
  100bec:	89 d0                	mov    %edx,%eax
  100bee:	c1 e0 02             	shl    $0x2,%eax
  100bf1:	01 d0                	add    %edx,%eax
  100bf3:	c1 e0 04             	shl    $0x4,%eax
  100bf6:	89 c2                	mov    %eax,%edx
  100bf8:	8b 45 fc             	mov    -0x4(%rbp),%eax
  100bfb:	01 d0                	add    %edx,%eax
  100bfd:	05 00 c0 05 00       	add    $0x5c000,%eax
  100c02:	01 c0                	add    %eax,%eax
  100c04:	48 98                	cltq
  100c06:	c9                   	leave
  100c07:	c3                   	ret

0000000000100c08 <move_cursor>:
  100c08:	55                   	push   %rbp
  100c09:	48 89 e5             	mov    %rsp,%rbp
  100c0c:	48 83 ec 10          	sub    $0x10,%rsp
  100c10:	8b 05 4e 4d 01 00    	mov    0x14d4e(%rip),%eax        # 115964 <cursor_y>
  100c16:	89 c2                	mov    %eax,%edx
  100c18:	89 d0                	mov    %edx,%eax
  100c1a:	c1 e0 02             	shl    $0x2,%eax
  100c1d:	01 d0                	add    %edx,%eax
  100c1f:	c1 e0 04             	shl    $0x4,%eax
  100c22:	89 c2                	mov    %eax,%edx
  100c24:	8b 05 36 4d 01 00    	mov    0x14d36(%rip),%eax        # 115960 <cursor_x>
  100c2a:	01 d0                	add    %edx,%eax
  100c2c:	66 89 45 fe          	mov    %ax,-0x2(%rbp)
  100c30:	be 0f 00 00 00       	mov    $0xf,%esi
  100c35:	bf d4 03 00 00       	mov    $0x3d4,%edi
  100c3a:	e8 5c f5 ff ff       	call   10019b <outb>
  100c3f:	0f b7 45 fe          	movzwl -0x2(%rbp),%eax
  100c43:	0f b6 c0             	movzbl %al,%eax
  100c46:	89 c6                	mov    %eax,%esi
  100c48:	bf d5 03 00 00       	mov    $0x3d5,%edi
  100c4d:	e8 49 f5 ff ff       	call   10019b <outb>
  100c52:	be 0e 00 00 00       	mov    $0xe,%esi
  100c57:	bf d4 03 00 00       	mov    $0x3d4,%edi
  100c5c:	e8 3a f5 ff ff       	call   10019b <outb>
  100c61:	0f b7 45 fe          	movzwl -0x2(%rbp),%eax
  100c65:	66 c1 e8 08          	shr    $0x8,%ax
  100c69:	0f b6 c0             	movzbl %al,%eax
  100c6c:	89 c6                	mov    %eax,%esi
  100c6e:	bf d5 03 00 00       	mov    $0x3d5,%edi
  100c73:	e8 23 f5 ff ff       	call   10019b <outb>
  100c78:	90                   	nop
  100c79:	c9                   	leave
  100c7a:	c3                   	ret

0000000000100c7b <print_char>:
  100c7b:	55                   	push   %rbp
  100c7c:	48 89 e5             	mov    %rsp,%rbp
  100c7f:	53                   	push   %rbx
  100c80:	48 83 ec 18          	sub    $0x18,%rsp
  100c84:	89 f8                	mov    %edi,%eax
  100c86:	88 45 ec             	mov    %al,-0x14(%rbp)
  100c89:	80 7d ec 0a          	cmpb   $0xa,-0x14(%rbp)
  100c8d:	75 30                	jne    100cbf <print_char+0x44>
  100c8f:	c7 05 c7 4c 01 00 00 	movl   $0x0,0x14cc7(%rip)        # 115960 <cursor_x>
  100c96:	00 00 00 
  100c99:	8b 05 c5 4c 01 00    	mov    0x14cc5(%rip),%eax        # 115964 <cursor_y>
  100c9f:	83 c0 01             	add    $0x1,%eax
  100ca2:	89 05 bc 4c 01 00    	mov    %eax,0x14cbc(%rip)        # 115964 <cursor_y>
  100ca8:	8b 05 b6 4c 01 00    	mov    0x14cb6(%rip),%eax        # 115964 <cursor_y>
  100cae:	83 f8 18             	cmp    $0x18,%eax
  100cb1:	7e 7a                	jle    100d2d <print_char+0xb2>
  100cb3:	c7 05 a7 4c 01 00 18 	movl   $0x18,0x14ca7(%rip)        # 115964 <cursor_y>
  100cba:	00 00 00 
  100cbd:	eb 6e                	jmp    100d2d <print_char+0xb2>
  100cbf:	0f b6 45 ec          	movzbl -0x14(%rbp),%eax
  100cc3:	0f b6 c0             	movzbl %al,%eax
  100cc6:	80 cc 07             	or     $0x7,%ah
  100cc9:	89 c3                	mov    %eax,%ebx
  100ccb:	8b 15 93 4c 01 00    	mov    0x14c93(%rip),%edx        # 115964 <cursor_y>
  100cd1:	8b 05 89 4c 01 00    	mov    0x14c89(%rip),%eax        # 115960 <cursor_x>
  100cd7:	89 d6                	mov    %edx,%esi
  100cd9:	89 c7                	mov    %eax,%edi
  100cdb:	e8 fb fe ff ff       	call   100bdb <vga_cell>
  100ce0:	89 da                	mov    %ebx,%edx
  100ce2:	66 89 10             	mov    %dx,(%rax)
  100ce5:	8b 05 75 4c 01 00    	mov    0x14c75(%rip),%eax        # 115960 <cursor_x>
  100ceb:	83 c0 01             	add    $0x1,%eax
  100cee:	89 05 6c 4c 01 00    	mov    %eax,0x14c6c(%rip)        # 115960 <cursor_x>
  100cf4:	8b 05 66 4c 01 00    	mov    0x14c66(%rip),%eax        # 115960 <cursor_x>
  100cfa:	83 f8 4f             	cmp    $0x4f,%eax
  100cfd:	7e 2e                	jle    100d2d <print_char+0xb2>
  100cff:	c7 05 57 4c 01 00 00 	movl   $0x0,0x14c57(%rip)        # 115960 <cursor_x>
  100d06:	00 00 00 
  100d09:	8b 05 55 4c 01 00    	mov    0x14c55(%rip),%eax        # 115964 <cursor_y>
  100d0f:	83 c0 01             	add    $0x1,%eax
  100d12:	89 05 4c 4c 01 00    	mov    %eax,0x14c4c(%rip)        # 115964 <cursor_y>
  100d18:	8b 05 46 4c 01 00    	mov    0x14c46(%rip),%eax        # 115964 <cursor_y>
  100d1e:	83 f8 18             	cmp    $0x18,%eax
  100d21:	7e 0a                	jle    100d2d <print_char+0xb2>
  100d23:	c7 05 37 4c 01 00 18 	movl   $0x18,0x14c37(%rip)        # 115964 <cursor_y>
  100d2a:	00 00 00 
  100d2d:	e8 d6 fe ff ff       	call   100c08 <move_cursor>
  100d32:	90                   	nop
  100d33:	48 8b 5d f8          	mov    -0x8(%rbp),%rbx
  100d37:	c9                   	leave
  100d38:	c3                   	ret

0000000000100d39 <print_str>:
  100d39:	55                   	push   %rbp
  100d3a:	48 89 e5             	mov    %rsp,%rbp
  100d3d:	48 83 ec 10          	sub    $0x10,%rsp
  100d41:	48 89 7d f8          	mov    %rdi,-0x8(%rbp)
  100d45:	eb 19                	jmp    100d60 <print_str+0x27>
  100d47:	48 8b 45 f8          	mov    -0x8(%rbp),%rax
  100d4b:	48 8d 50 01          	lea    0x1(%rax),%rdx
  100d4f:	48 89 55 f8          	mov    %rdx,-0x8(%rbp)
  100d53:	0f b6 00             	movzbl (%rax),%eax
  100d56:	0f be c0             	movsbl %al,%eax
  100d59:	89 c7                	mov    %eax,%edi
  100d5b:	e8 1b ff ff ff       	call   100c7b <print_char>
  100d60:	48 8b 45 f8          	mov    -0x8(%rbp),%rax
  100d64:	0f b6 00             	movzbl (%rax),%eax
  100d67:	84 c0                	test   %al,%al
  100d69:	75 dc                	jne    100d47 <print_str+0xe>
  100d6b:	90                   	nop
  100d6c:	90                   	nop
  100d6d:	c9                   	leave
  100d6e:	c3                   	ret

0000000000100d6f <reverse>:
  100d6f:	55                   	push   %rbp
  100d70:	48 89 e5             	mov    %rsp,%rbp
  100d73:	48 83 ec 20          	sub    $0x20,%rsp
  100d77:	48 89 7d e8          	mov    %rdi,-0x18(%rbp)
  100d7b:	89 75 e4             	mov    %esi,-0x1c(%rbp)
  100d7e:	c7 45 fc 00 00 00 00 	movl   $0x0,-0x4(%rbp)
  100d85:	8b 45 e4             	mov    -0x1c(%rbp),%eax
  100d88:	83 e8 01             	sub    $0x1,%eax
  100d8b:	89 45 f8             	mov    %eax,-0x8(%rbp)
  100d8e:	eb 4d                	jmp    100ddd <reverse+0x6e>
  100d90:	8b 45 fc             	mov    -0x4(%rbp),%eax
  100d93:	48 63 d0             	movslq %eax,%rdx
  100d96:	48 8b 45 e8          	mov    -0x18(%rbp),%rax
  100d9a:	48 01 d0             	add    %rdx,%rax
  100d9d:	0f b6 00             	movzbl (%rax),%eax
  100da0:	88 45 f7             	mov    %al,-0x9(%rbp)
  100da3:	8b 45 f8             	mov    -0x8(%rbp),%eax
  100da6:	48 63 d0             	movslq %eax,%rdx
  100da9:	48 8b 45 e8          	mov    -0x18(%rbp),%rax
  100dad:	48 01 d0             	add    %rdx,%rax
  100db0:	8b 55 fc             	mov    -0x4(%rbp),%edx
  100db3:	48 63 ca             	movslq %edx,%rcx
  100db6:	48 8b 55 e8          	mov    -0x18(%rbp),%rdx
  100dba:	48 01 ca             	add    %rcx,%rdx
  100dbd:	0f b6 00             	movzbl (%rax),%eax
  100dc0:	88 02                	mov    %al,(%rdx)
  100dc2:	8b 45 f8             	mov    -0x8(%rbp),%eax
  100dc5:	48 63 d0             	movslq %eax,%rdx
  100dc8:	48 8b 45 e8          	mov    -0x18(%rbp),%rax
  100dcc:	48 01 c2             	add    %rax,%rdx
  100dcf:	0f b6 45 f7          	movzbl -0x9(%rbp),%eax
  100dd3:	88 02                	mov    %al,(%rdx)
  100dd5:	83 45 fc 01          	addl   $0x1,-0x4(%rbp)
  100dd9:	83 6d f8 01          	subl   $0x1,-0x8(%rbp)
  100ddd:	8b 45 fc             	mov    -0x4(%rbp),%eax
  100de0:	3b 45 f8             	cmp    -0x8(%rbp),%eax
  100de3:	7c ab                	jl     100d90 <reverse+0x21>
  100de5:	90                   	nop
  100de6:	90                   	nop
  100de7:	c9                   	leave
  100de8:	c3                   	ret

0000000000100de9 <print_uint>:
  100de9:	55                   	push   %rbp
  100dea:	48 89 e5             	mov    %rsp,%rbp
  100ded:	48 83 ec 70          	sub    $0x70,%rsp
  100df1:	48 89 7d a8          	mov    %rdi,-0x58(%rbp)
  100df5:	89 75 a4             	mov    %esi,-0x5c(%rbp)
  100df8:	89 55 a0             	mov    %edx,-0x60(%rbp)
  100dfb:	89 4d 9c             	mov    %ecx,-0x64(%rbp)
  100dfe:	44 89 45 98          	mov    %r8d,-0x68(%rbp)
  100e02:	83 7d a4 01          	cmpl   $0x1,-0x5c(%rbp)
  100e06:	76 06                	jbe    100e0e <print_uint+0x25>
  100e08:	83 7d a4 10          	cmpl   $0x10,-0x5c(%rbp)
  100e0c:	76 07                	jbe    100e15 <print_uint+0x2c>
  100e0e:	c7 45 a4 0a 00 00 00 	movl   $0xa,-0x5c(%rbp)
  100e15:	83 7d a0 50          	cmpl   $0x50,-0x60(%rbp)
  100e19:	7e 07                	jle    100e22 <print_uint+0x39>
  100e1b:	c7 45 a0 50 00 00 00 	movl   $0x50,-0x60(%rbp)
  100e22:	83 7d a0 00          	cmpl   $0x0,-0x60(%rbp)
  100e26:	79 07                	jns    100e2f <print_uint+0x46>
  100e28:	c7 45 a0 00 00 00 00 	movl   $0x0,-0x60(%rbp)
  100e2f:	83 7d 9c 00          	cmpl   $0x0,-0x64(%rbp)
  100e33:	74 0d                	je     100e42 <print_uint+0x59>
  100e35:	83 7d a0 14          	cmpl   $0x14,-0x60(%rbp)
  100e39:	7e 07                	jle    100e42 <print_uint+0x59>
  100e3b:	c7 45 a0 14 00 00 00 	movl   $0x14,-0x60(%rbp)
  100e42:	c7 45 fc 00 00 00 00 	movl   $0x0,-0x4(%rbp)
  100e49:	83 7d 98 00          	cmpl   $0x0,-0x68(%rbp)
  100e4d:	74 0a                	je     100e59 <print_uint+0x70>
  100e4f:	48 c7 45 f0 f6 50 10 	movq   $0x1050f6,-0x10(%rbp)
  100e56:	00 
  100e57:	eb 08                	jmp    100e61 <print_uint+0x78>
  100e59:	48 c7 45 f0 07 51 10 	movq   $0x105107,-0x10(%rbp)
  100e60:	00 
  100e61:	48 83 7d a8 00       	cmpq   $0x0,-0x58(%rbp)
  100e66:	75 56                	jne    100ebe <print_uint+0xd5>
  100e68:	8b 45 fc             	mov    -0x4(%rbp),%eax
  100e6b:	8d 50 01             	lea    0x1(%rax),%edx
  100e6e:	89 55 fc             	mov    %edx,-0x4(%rbp)
  100e71:	48 98                	cltq
  100e73:	c6 44 05 b0 30       	movb   $0x30,-0x50(%rbp,%rax,1)
  100e78:	eb 51                	jmp    100ecb <print_uint+0xe2>
  100e7a:	8b 4d a4             	mov    -0x5c(%rbp),%ecx
  100e7d:	48 8b 45 a8          	mov    -0x58(%rbp),%rax
  100e81:	ba 00 00 00 00       	mov    $0x0,%edx
  100e86:	48 f7 f1             	div    %rcx
  100e89:	48 89 55 d8          	mov    %rdx,-0x28(%rbp)
  100e8d:	8b 75 a4             	mov    -0x5c(%rbp),%esi
  100e90:	48 8b 45 a8          	mov    -0x58(%rbp),%rax
  100e94:	ba 00 00 00 00       	mov    $0x0,%edx
  100e99:	48 f7 f6             	div    %rsi
  100e9c:	48 89 45 a8          	mov    %rax,-0x58(%rbp)
  100ea0:	48 8b 55 f0          	mov    -0x10(%rbp),%rdx
  100ea4:	48 8b 45 d8          	mov    -0x28(%rbp),%rax
  100ea8:	48 8d 0c 02          	lea    (%rdx,%rax,1),%rcx
  100eac:	8b 45 fc             	mov    -0x4(%rbp),%eax
  100eaf:	8d 50 01             	lea    0x1(%rax),%edx
  100eb2:	89 55 fc             	mov    %edx,-0x4(%rbp)
  100eb5:	0f b6 11             	movzbl (%rcx),%edx
  100eb8:	48 98                	cltq
  100eba:	88 54 05 b0          	mov    %dl,-0x50(%rbp,%rax,1)
  100ebe:	48 83 7d a8 00       	cmpq   $0x0,-0x58(%rbp)
  100ec3:	74 06                	je     100ecb <print_uint+0xe2>
  100ec5:	83 7d fc 16          	cmpl   $0x16,-0x4(%rbp)
  100ec9:	7e af                	jle    100e7a <print_uint+0x91>
  100ecb:	83 7d 9c 00          	cmpl   $0x0,-0x64(%rbp)
  100ecf:	74 43                	je     100f14 <print_uint+0x12b>
  100ed1:	8b 45 fc             	mov    -0x4(%rbp),%eax
  100ed4:	3b 45 a0             	cmp    -0x60(%rbp),%eax
  100ed7:	7d 3b                	jge    100f14 <print_uint+0x12b>
  100ed9:	8b 45 a0             	mov    -0x60(%rbp),%eax
  100edc:	2b 45 fc             	sub    -0x4(%rbp),%eax
  100edf:	89 45 d4             	mov    %eax,-0x2c(%rbp)
  100ee2:	8b 55 fc             	mov    -0x4(%rbp),%edx
  100ee5:	8b 45 d4             	mov    -0x2c(%rbp),%eax
  100ee8:	01 d0                	add    %edx,%eax
  100eea:	83 f8 17             	cmp    $0x17,%eax
  100eed:	7f 25                	jg     100f14 <print_uint+0x12b>
  100eef:	c7 45 ec 00 00 00 00 	movl   $0x0,-0x14(%rbp)
  100ef6:	eb 14                	jmp    100f0c <print_uint+0x123>
  100ef8:	8b 45 fc             	mov    -0x4(%rbp),%eax
  100efb:	8d 50 01             	lea    0x1(%rax),%edx
  100efe:	89 55 fc             	mov    %edx,-0x4(%rbp)
  100f01:	48 98                	cltq
  100f03:	c6 44 05 b0 30       	movb   $0x30,-0x50(%rbp,%rax,1)
  100f08:	83 45 ec 01          	addl   $0x1,-0x14(%rbp)
  100f0c:	8b 45 ec             	mov    -0x14(%rbp),%eax
  100f0f:	3b 45 d4             	cmp    -0x2c(%rbp),%eax
  100f12:	7c e4                	jl     100ef8 <print_uint+0x10f>
  100f14:	8b 55 fc             	mov    -0x4(%rbp),%edx
  100f17:	48 8d 45 b0          	lea    -0x50(%rbp),%rax
  100f1b:	89 d6                	mov    %edx,%esi
  100f1d:	48 89 c7             	mov    %rax,%rdi
  100f20:	e8 4a fe ff ff       	call   100d6f <reverse>
  100f25:	c7 45 e8 00 00 00 00 	movl   $0x0,-0x18(%rbp)
  100f2c:	eb 18                	jmp    100f46 <print_uint+0x15d>
  100f2e:	8b 45 e8             	mov    -0x18(%rbp),%eax
  100f31:	48 98                	cltq
  100f33:	0f b6 44 05 b0       	movzbl -0x50(%rbp,%rax,1),%eax
  100f38:	0f be c0             	movsbl %al,%eax
  100f3b:	89 c7                	mov    %eax,%edi
  100f3d:	e8 39 fd ff ff       	call   100c7b <print_char>
  100f42:	83 45 e8 01          	addl   $0x1,-0x18(%rbp)
  100f46:	8b 45 e8             	mov    -0x18(%rbp),%eax
  100f49:	3b 45 fc             	cmp    -0x4(%rbp),%eax
  100f4c:	7d 06                	jge    100f54 <print_uint+0x16b>
  100f4e:	83 7d e8 17          	cmpl   $0x17,-0x18(%rbp)
  100f52:	7e da                	jle    100f2e <print_uint+0x145>
  100f54:	8b 45 fc             	mov    -0x4(%rbp),%eax
  100f57:	3b 45 a0             	cmp    -0x60(%rbp),%eax
  100f5a:	7d 2e                	jge    100f8a <print_uint+0x1a1>
  100f5c:	8b 45 a0             	mov    -0x60(%rbp),%eax
  100f5f:	2b 45 fc             	sub    -0x4(%rbp),%eax
  100f62:	89 45 d0             	mov    %eax,-0x30(%rbp)
  100f65:	c7 45 e4 00 00 00 00 	movl   $0x0,-0x1c(%rbp)
  100f6c:	eb 0e                	jmp    100f7c <print_uint+0x193>
  100f6e:	bf 20 00 00 00       	mov    $0x20,%edi
  100f73:	e8 03 fd ff ff       	call   100c7b <print_char>
  100f78:	83 45 e4 01          	addl   $0x1,-0x1c(%rbp)
  100f7c:	8b 45 e4             	mov    -0x1c(%rbp),%eax
  100f7f:	3b 45 d0             	cmp    -0x30(%rbp),%eax
  100f82:	7d 06                	jge    100f8a <print_uint+0x1a1>
  100f84:	83 7d e4 4f          	cmpl   $0x4f,-0x1c(%rbp)
  100f88:	7e e4                	jle    100f6e <print_uint+0x185>
  100f8a:	90                   	nop
  100f8b:	c9                   	leave
  100f8c:	c3                   	ret

0000000000100f8d <print_int>:
  100f8d:	55                   	push   %rbp
  100f8e:	48 89 e5             	mov    %rsp,%rbp
  100f91:	48 83 ec 10          	sub    $0x10,%rsp
  100f95:	48 89 7d f8          	mov    %rdi,-0x8(%rbp)
  100f99:	89 75 f4             	mov    %esi,-0xc(%rbp)
  100f9c:	89 55 f0             	mov    %edx,-0x10(%rbp)
  100f9f:	83 7d f4 50          	cmpl   $0x50,-0xc(%rbp)
  100fa3:	7e 07                	jle    100fac <print_int+0x1f>
  100fa5:	c7 45 f4 50 00 00 00 	movl   $0x50,-0xc(%rbp)
  100fac:	83 7d f4 00          	cmpl   $0x0,-0xc(%rbp)
  100fb0:	79 07                	jns    100fb9 <print_int+0x2c>
  100fb2:	c7 45 f4 00 00 00 00 	movl   $0x0,-0xc(%rbp)
  100fb9:	48 83 7d f8 00       	cmpq   $0x0,-0x8(%rbp)
  100fbe:	79 0e                	jns    100fce <print_int+0x41>
  100fc0:	bf 2d 00 00 00       	mov    $0x2d,%edi
  100fc5:	e8 b1 fc ff ff       	call   100c7b <print_char>
  100fca:	48 f7 5d f8          	negq   -0x8(%rbp)
  100fce:	48 8b 45 f8          	mov    -0x8(%rbp),%rax
  100fd2:	8b 4d f0             	mov    -0x10(%rbp),%ecx
  100fd5:	8b 55 f4             	mov    -0xc(%rbp),%edx
  100fd8:	41 b8 00 00 00 00    	mov    $0x0,%r8d
  100fde:	be 0a 00 00 00       	mov    $0xa,%esi
  100fe3:	48 89 c7             	mov    %rax,%rdi
  100fe6:	e8 fe fd ff ff       	call   100de9 <print_uint>
  100feb:	90                   	nop
  100fec:	c9                   	leave
  100fed:	c3                   	ret

0000000000100fee <kprintf>:
  100fee:	55                   	push   %rbp
  100fef:	48 89 e5             	mov    %rsp,%rbp
  100ff2:	48 81 ec 00 01 00 00 	sub    $0x100,%rsp
  100ff9:	48 89 bd 08 ff ff ff 	mov    %rdi,-0xf8(%rbp)
  101000:	48 89 b5 58 ff ff ff 	mov    %rsi,-0xa8(%rbp)
  101007:	48 89 95 60 ff ff ff 	mov    %rdx,-0xa0(%rbp)
  10100e:	48 89 8d 68 ff ff ff 	mov    %rcx,-0x98(%rbp)
  101015:	4c 89 85 70 ff ff ff 	mov    %r8,-0x90(%rbp)
  10101c:	4c 89 8d 78 ff ff ff 	mov    %r9,-0x88(%rbp)
  101023:	84 c0                	test   %al,%al
  101025:	74 20                	je     101047 <kprintf+0x59>
  101027:	0f 29 45 80          	movaps %xmm0,-0x80(%rbp)
  10102b:	0f 29 4d 90          	movaps %xmm1,-0x70(%rbp)
  10102f:	0f 29 55 a0          	movaps %xmm2,-0x60(%rbp)
  101033:	0f 29 5d b0          	movaps %xmm3,-0x50(%rbp)
  101037:	0f 29 65 c0          	movaps %xmm4,-0x40(%rbp)
  10103b:	0f 29 6d d0          	movaps %xmm5,-0x30(%rbp)
  10103f:	0f 29 75 e0          	movaps %xmm6,-0x20(%rbp)
  101043:	0f 29 7d f0          	movaps %xmm7,-0x10(%rbp)
  101047:	c7 85 18 ff ff ff 08 	movl   $0x8,-0xe8(%rbp)
  10104e:	00 00 00 
  101051:	c7 85 1c ff ff ff 30 	movl   $0x30,-0xe4(%rbp)
  101058:	00 00 00 
  10105b:	48 8d 45 10          	lea    0x10(%rbp),%rax
  10105f:	48 89 85 20 ff ff ff 	mov    %rax,-0xe0(%rbp)
  101066:	48 8d 85 50 ff ff ff 	lea    -0xb0(%rbp),%rax
  10106d:	48 89 85 28 ff ff ff 	mov    %rax,-0xd8(%rbp)
  101074:	e9 f7 04 00 00       	jmp    101570 <kprintf+0x582>
  101079:	48 8b 85 08 ff ff ff 	mov    -0xf8(%rbp),%rax
  101080:	0f b6 00             	movzbl (%rax),%eax
  101083:	3c 25                	cmp    $0x25,%al
  101085:	74 24                	je     1010ab <kprintf+0xbd>
  101087:	48 8b 85 08 ff ff ff 	mov    -0xf8(%rbp),%rax
  10108e:	48 8d 50 01          	lea    0x1(%rax),%rdx
  101092:	48 89 95 08 ff ff ff 	mov    %rdx,-0xf8(%rbp)
  101099:	0f b6 00             	movzbl (%rax),%eax
  10109c:	0f be c0             	movsbl %al,%eax
  10109f:	89 c7                	mov    %eax,%edi
  1010a1:	e8 d5 fb ff ff       	call   100c7b <print_char>
  1010a6:	e9 c5 04 00 00       	jmp    101570 <kprintf+0x582>
  1010ab:	48 83 85 08 ff ff ff 	addq   $0x1,-0xf8(%rbp)
  1010b2:	01 
  1010b3:	c7 85 4c ff ff ff 00 	movl   $0x0,-0xb4(%rbp)
  1010ba:	00 00 00 
  1010bd:	c7 85 48 ff ff ff 00 	movl   $0x0,-0xb8(%rbp)
  1010c4:	00 00 00 
  1010c7:	48 8b 85 08 ff ff ff 	mov    -0xf8(%rbp),%rax
  1010ce:	0f b6 00             	movzbl (%rax),%eax
  1010d1:	3c 30                	cmp    $0x30,%al
  1010d3:	75 45                	jne    10111a <kprintf+0x12c>
  1010d5:	c7 85 4c ff ff ff 01 	movl   $0x1,-0xb4(%rbp)
  1010dc:	00 00 00 
  1010df:	48 83 85 08 ff ff ff 	addq   $0x1,-0xf8(%rbp)
  1010e6:	01 
  1010e7:	eb 31                	jmp    10111a <kprintf+0x12c>
  1010e9:	8b 95 48 ff ff ff    	mov    -0xb8(%rbp),%edx
  1010ef:	89 d0                	mov    %edx,%eax
  1010f1:	c1 e0 02             	shl    $0x2,%eax
  1010f4:	01 d0                	add    %edx,%eax
  1010f6:	01 c0                	add    %eax,%eax
  1010f8:	89 c2                	mov    %eax,%edx
  1010fa:	48 8b 85 08 ff ff ff 	mov    -0xf8(%rbp),%rax
  101101:	0f b6 00             	movzbl (%rax),%eax
  101104:	0f be c0             	movsbl %al,%eax
  101107:	83 e8 30             	sub    $0x30,%eax
  10110a:	01 d0                	add    %edx,%eax
  10110c:	89 85 48 ff ff ff    	mov    %eax,-0xb8(%rbp)
  101112:	48 83 85 08 ff ff ff 	addq   $0x1,-0xf8(%rbp)
  101119:	01 
  10111a:	48 8b 85 08 ff ff ff 	mov    -0xf8(%rbp),%rax
  101121:	0f b6 00             	movzbl (%rax),%eax
  101124:	3c 2f                	cmp    $0x2f,%al
  101126:	7e 1a                	jle    101142 <kprintf+0x154>
  101128:	48 8b 85 08 ff ff ff 	mov    -0xf8(%rbp),%rax
  10112f:	0f b6 00             	movzbl (%rax),%eax
  101132:	3c 39                	cmp    $0x39,%al
  101134:	7f 0c                	jg     101142 <kprintf+0x154>
  101136:	81 bd 48 ff ff ff e7 	cmpl   $0x3e7,-0xb8(%rbp)
  10113d:	03 00 00 
  101140:	7e a7                	jle    1010e9 <kprintf+0xfb>
  101142:	83 bd 48 ff ff ff 50 	cmpl   $0x50,-0xb8(%rbp)
  101149:	7e 0a                	jle    101155 <kprintf+0x167>
  10114b:	c7 85 48 ff ff ff 50 	movl   $0x50,-0xb8(%rbp)
  101152:	00 00 00 
  101155:	48 8b 85 08 ff ff ff 	mov    -0xf8(%rbp),%rax
  10115c:	0f b6 00             	movzbl (%rax),%eax
  10115f:	0f be c0             	movsbl %al,%eax
  101162:	83 f8 78             	cmp    $0x78,%eax
  101165:	0f 84 72 02 00 00    	je     1013dd <kprintf+0x3ef>
  10116b:	83 f8 78             	cmp    $0x78,%eax
  10116e:	0f 8f b4 03 00 00    	jg     101528 <kprintf+0x53a>
  101174:	83 f8 75             	cmp    $0x75,%eax
  101177:	0f 84 f7 01 00 00    	je     101374 <kprintf+0x386>
  10117d:	83 f8 75             	cmp    $0x75,%eax
  101180:	0f 8f a2 03 00 00    	jg     101528 <kprintf+0x53a>
  101186:	83 f8 73             	cmp    $0x73,%eax
  101189:	0f 84 c0 00 00 00    	je     10124f <kprintf+0x261>
  10118f:	83 f8 73             	cmp    $0x73,%eax
  101192:	0f 8f 90 03 00 00    	jg     101528 <kprintf+0x53a>
  101198:	83 f8 70             	cmp    $0x70,%eax
  10119b:	0f 84 0a 03 00 00    	je     1014ab <kprintf+0x4bd>
  1011a1:	83 f8 70             	cmp    $0x70,%eax
  1011a4:	0f 8f 7e 03 00 00    	jg     101528 <kprintf+0x53a>
  1011aa:	83 f8 69             	cmp    $0x69,%eax
  1011ad:	0f 84 62 01 00 00    	je     101315 <kprintf+0x327>
  1011b3:	83 f8 69             	cmp    $0x69,%eax
  1011b6:	0f 8f 6c 03 00 00    	jg     101528 <kprintf+0x53a>
  1011bc:	83 f8 64             	cmp    $0x64,%eax
  1011bf:	0f 84 50 01 00 00    	je     101315 <kprintf+0x327>
  1011c5:	83 f8 64             	cmp    $0x64,%eax
  1011c8:	0f 8f 5a 03 00 00    	jg     101528 <kprintf+0x53a>
  1011ce:	83 f8 63             	cmp    $0x63,%eax
  1011d1:	74 2b                	je     1011fe <kprintf+0x210>
  1011d3:	83 f8 63             	cmp    $0x63,%eax
  1011d6:	0f 8f 4c 03 00 00    	jg     101528 <kprintf+0x53a>
  1011dc:	83 f8 25             	cmp    $0x25,%eax
  1011df:	74 0e                	je     1011ef <kprintf+0x201>
  1011e1:	83 f8 58             	cmp    $0x58,%eax
  1011e4:	0f 84 5a 02 00 00    	je     101444 <kprintf+0x456>
  1011ea:	e9 39 03 00 00       	jmp    101528 <kprintf+0x53a>
  1011ef:	bf 25 00 00 00       	mov    $0x25,%edi
  1011f4:	e8 82 fa ff ff       	call   100c7b <print_char>
  1011f9:	e9 5c 03 00 00       	jmp    10155a <kprintf+0x56c>
  1011fe:	8b 85 18 ff ff ff    	mov    -0xe8(%rbp),%eax
  101204:	83 f8 2f             	cmp    $0x2f,%eax
  101207:	77 23                	ja     10122c <kprintf+0x23e>
  101209:	48 8b 85 28 ff ff ff 	mov    -0xd8(%rbp),%rax
  101210:	8b 95 18 ff ff ff    	mov    -0xe8(%rbp),%edx
  101216:	89 d2                	mov    %edx,%edx
  101218:	48 01 d0             	add    %rdx,%rax
  10121b:	8b 95 18 ff ff ff    	mov    -0xe8(%rbp),%edx
  101221:	83 c2 08             	add    $0x8,%edx
  101224:	89 95 18 ff ff ff    	mov    %edx,-0xe8(%rbp)
  10122a:	eb 12                	jmp    10123e <kprintf+0x250>
  10122c:	48 8b 85 20 ff ff ff 	mov    -0xe0(%rbp),%rax
  101233:	48 8d 50 08          	lea    0x8(%rax),%rdx
  101237:	48 89 95 20 ff ff ff 	mov    %rdx,-0xe0(%rbp)
  10123e:	8b 00                	mov    (%rax),%eax
  101240:	0f be c0             	movsbl %al,%eax
  101243:	89 c7                	mov    %eax,%edi
  101245:	e8 31 fa ff ff       	call   100c7b <print_char>
  10124a:	e9 0b 03 00 00       	jmp    10155a <kprintf+0x56c>
  10124f:	8b 85 18 ff ff ff    	mov    -0xe8(%rbp),%eax
  101255:	83 f8 2f             	cmp    $0x2f,%eax
  101258:	77 23                	ja     10127d <kprintf+0x28f>
  10125a:	48 8b 85 28 ff ff ff 	mov    -0xd8(%rbp),%rax
  101261:	8b 95 18 ff ff ff    	mov    -0xe8(%rbp),%edx
  101267:	89 d2                	mov    %edx,%edx
  101269:	48 01 d0             	add    %rdx,%rax
  10126c:	8b 95 18 ff ff ff    	mov    -0xe8(%rbp),%edx
  101272:	83 c2 08             	add    $0x8,%edx
  101275:	89 95 18 ff ff ff    	mov    %edx,-0xe8(%rbp)
  10127b:	eb 12                	jmp    10128f <kprintf+0x2a1>
  10127d:	48 8b 85 20 ff ff ff 	mov    -0xe0(%rbp),%rax
  101284:	48 8d 50 08          	lea    0x8(%rax),%rdx
  101288:	48 89 95 20 ff ff ff 	mov    %rdx,-0xe0(%rbp)
  10128f:	48 8b 00             	mov    (%rax),%rax
  101292:	48 89 85 30 ff ff ff 	mov    %rax,-0xd0(%rbp)
  101299:	48 83 bd 30 ff ff ff 	cmpq   $0x0,-0xd0(%rbp)
  1012a0:	00 
  1012a1:	75 0f                	jne    1012b2 <kprintf+0x2c4>
  1012a3:	bf 18 51 10 00       	mov    $0x105118,%edi
  1012a8:	e8 8c fa ff ff       	call   100d39 <print_str>
  1012ad:	e9 a4 02 00 00       	jmp    101556 <kprintf+0x568>
  1012b2:	48 8b 85 30 ff ff ff 	mov    -0xd0(%rbp),%rax
  1012b9:	48 89 85 40 ff ff ff 	mov    %rax,-0xc0(%rbp)
  1012c0:	c7 85 3c ff ff ff a0 	movl   $0xa0,-0xc4(%rbp)
  1012c7:	00 00 00 
  1012ca:	eb 1f                	jmp    1012eb <kprintf+0x2fd>
  1012cc:	48 8b 85 40 ff ff ff 	mov    -0xc0(%rbp),%rax
  1012d3:	48 8d 50 01          	lea    0x1(%rax),%rdx
  1012d7:	48 89 95 40 ff ff ff 	mov    %rdx,-0xc0(%rbp)
  1012de:	0f b6 00             	movzbl (%rax),%eax
  1012e1:	0f be c0             	movsbl %al,%eax
  1012e4:	89 c7                	mov    %eax,%edi
  1012e6:	e8 90 f9 ff ff       	call   100c7b <print_char>
  1012eb:	48 8b 85 40 ff ff ff 	mov    -0xc0(%rbp),%rax
  1012f2:	0f b6 00             	movzbl (%rax),%eax
  1012f5:	84 c0                	test   %al,%al
  1012f7:	0f 84 59 02 00 00    	je     101556 <kprintf+0x568>
  1012fd:	8b 85 3c ff ff ff    	mov    -0xc4(%rbp),%eax
  101303:	8d 50 ff             	lea    -0x1(%rax),%edx
  101306:	89 95 3c ff ff ff    	mov    %edx,-0xc4(%rbp)
  10130c:	85 c0                	test   %eax,%eax
  10130e:	7f bc                	jg     1012cc <kprintf+0x2de>
  101310:	e9 41 02 00 00       	jmp    101556 <kprintf+0x568>
  101315:	8b 85 18 ff ff ff    	mov    -0xe8(%rbp),%eax
  10131b:	83 f8 2f             	cmp    $0x2f,%eax
  10131e:	77 23                	ja     101343 <kprintf+0x355>
  101320:	48 8b 85 28 ff ff ff 	mov    -0xd8(%rbp),%rax
  101327:	8b 95 18 ff ff ff    	mov    -0xe8(%rbp),%edx
  10132d:	89 d2                	mov    %edx,%edx
  10132f:	48 01 d0             	add    %rdx,%rax
  101332:	8b 95 18 ff ff ff    	mov    -0xe8(%rbp),%edx
  101338:	83 c2 08             	add    $0x8,%edx
  10133b:	89 95 18 ff ff ff    	mov    %edx,-0xe8(%rbp)
  101341:	eb 12                	jmp    101355 <kprintf+0x367>
  101343:	48 8b 85 20 ff ff ff 	mov    -0xe0(%rbp),%rax
  10134a:	48 8d 50 08          	lea    0x8(%rax),%rdx
  10134e:	48 89 95 20 ff ff ff 	mov    %rdx,-0xe0(%rbp)
  101355:	8b 00                	mov    (%rax),%eax
  101357:	48 98                	cltq
  101359:	8b 95 4c ff ff ff    	mov    -0xb4(%rbp),%edx
  10135f:	8b 8d 48 ff ff ff    	mov    -0xb8(%rbp),%ecx
  101365:	89 ce                	mov    %ecx,%esi
  101367:	48 89 c7             	mov    %rax,%rdi
  10136a:	e8 1e fc ff ff       	call   100f8d <print_int>
  10136f:	e9 e6 01 00 00       	jmp    10155a <kprintf+0x56c>
  101374:	8b 85 18 ff ff ff    	mov    -0xe8(%rbp),%eax
  10137a:	83 f8 2f             	cmp    $0x2f,%eax
  10137d:	77 23                	ja     1013a2 <kprintf+0x3b4>
  10137f:	48 8b 85 28 ff ff ff 	mov    -0xd8(%rbp),%rax
  101386:	8b 95 18 ff ff ff    	mov    -0xe8(%rbp),%edx
  10138c:	89 d2                	mov    %edx,%edx
  10138e:	48 01 d0             	add    %rdx,%rax
  101391:	8b 95 18 ff ff ff    	mov    -0xe8(%rbp),%edx
  101397:	83 c2 08             	add    $0x8,%edx
  10139a:	89 95 18 ff ff ff    	mov    %edx,-0xe8(%rbp)
  1013a0:	eb 12                	jmp    1013b4 <kprintf+0x3c6>
  1013a2:	48 8b 85 20 ff ff ff 	mov    -0xe0(%rbp),%rax
  1013a9:	48 8d 50 08          	lea    0x8(%rax),%rdx
  1013ad:	48 89 95 20 ff ff ff 	mov    %rdx,-0xe0(%rbp)
  1013b4:	8b 00                	mov    (%rax),%eax
  1013b6:	89 c7                	mov    %eax,%edi
  1013b8:	8b 95 4c ff ff ff    	mov    -0xb4(%rbp),%edx
  1013be:	8b 85 48 ff ff ff    	mov    -0xb8(%rbp),%eax
  1013c4:	41 b8 00 00 00 00    	mov    $0x0,%r8d
  1013ca:	89 d1                	mov    %edx,%ecx
  1013cc:	89 c2                	mov    %eax,%edx
  1013ce:	be 0a 00 00 00       	mov    $0xa,%esi
  1013d3:	e8 11 fa ff ff       	call   100de9 <print_uint>
  1013d8:	e9 7d 01 00 00       	jmp    10155a <kprintf+0x56c>
  1013dd:	8b 85 18 ff ff ff    	mov    -0xe8(%rbp),%eax
  1013e3:	83 f8 2f             	cmp    $0x2f,%eax
  1013e6:	77 23                	ja     10140b <kprintf+0x41d>
  1013e8:	48 8b 85 28 ff ff ff 	mov    -0xd8(%rbp),%rax
  1013ef:	8b 95 18 ff ff ff    	mov    -0xe8(%rbp),%edx
  1013f5:	89 d2                	mov    %edx,%edx
  1013f7:	48 01 d0             	add    %rdx,%rax
  1013fa:	8b 95 18 ff ff ff    	mov    -0xe8(%rbp),%edx
  101400:	83 c2 08             	add    $0x8,%edx
  101403:	89 95 18 ff ff ff    	mov    %edx,-0xe8(%rbp)
  101409:	eb 12                	jmp    10141d <kprintf+0x42f>
  10140b:	48 8b 85 20 ff ff ff 	mov    -0xe0(%rbp),%rax
  101412:	48 8d 50 08          	lea    0x8(%rax),%rdx
  101416:	48 89 95 20 ff ff ff 	mov    %rdx,-0xe0(%rbp)
  10141d:	48 8b 00             	mov    (%rax),%rax
  101420:	8b 8d 4c ff ff ff    	mov    -0xb4(%rbp),%ecx
  101426:	8b 95 48 ff ff ff    	mov    -0xb8(%rbp),%edx
  10142c:	41 b8 00 00 00 00    	mov    $0x0,%r8d
  101432:	be 10 00 00 00       	mov    $0x10,%esi
  101437:	48 89 c7             	mov    %rax,%rdi
  10143a:	e8 aa f9 ff ff       	call   100de9 <print_uint>
  10143f:	e9 16 01 00 00       	jmp    10155a <kprintf+0x56c>
  101444:	8b 85 18 ff ff ff    	mov    -0xe8(%rbp),%eax
  10144a:	83 f8 2f             	cmp    $0x2f,%eax
  10144d:	77 23                	ja     101472 <kprintf+0x484>
  10144f:	48 8b 85 28 ff ff ff 	mov    -0xd8(%rbp),%rax
  101456:	8b 95 18 ff ff ff    	mov    -0xe8(%rbp),%edx
  10145c:	89 d2                	mov    %edx,%edx
  10145e:	48 01 d0             	add    %rdx,%rax
  101461:	8b 95 18 ff ff ff    	mov    -0xe8(%rbp),%edx
  101467:	83 c2 08             	add    $0x8,%edx
  10146a:	89 95 18 ff ff ff    	mov    %edx,-0xe8(%rbp)
  101470:	eb 12                	jmp    101484 <kprintf+0x496>
  101472:	48 8b 85 20 ff ff ff 	mov    -0xe0(%rbp),%rax
  101479:	48 8d 50 08          	lea    0x8(%rax),%rdx
  10147d:	48 89 95 20 ff ff ff 	mov    %rdx,-0xe0(%rbp)
  101484:	48 8b 00             	mov    (%rax),%rax
  101487:	8b 8d 4c ff ff ff    	mov    -0xb4(%rbp),%ecx
  10148d:	8b 95 48 ff ff ff    	mov    -0xb8(%rbp),%edx
  101493:	41 b8 01 00 00 00    	mov    $0x1,%r8d
  101499:	be 10 00 00 00       	mov    $0x10,%esi
  10149e:	48 89 c7             	mov    %rax,%rdi
  1014a1:	e8 43 f9 ff ff       	call   100de9 <print_uint>
  1014a6:	e9 af 00 00 00       	jmp    10155a <kprintf+0x56c>
  1014ab:	bf 1f 51 10 00       	mov    $0x10511f,%edi
  1014b0:	e8 84 f8 ff ff       	call   100d39 <print_str>
  1014b5:	83 bd 48 ff ff ff 00 	cmpl   $0x0,-0xb8(%rbp)
  1014bc:	7e 08                	jle    1014c6 <kprintf+0x4d8>
  1014be:	8b 95 48 ff ff ff    	mov    -0xb8(%rbp),%edx
  1014c4:	eb 05                	jmp    1014cb <kprintf+0x4dd>
  1014c6:	ba 10 00 00 00       	mov    $0x10,%edx
  1014cb:	8b 85 18 ff ff ff    	mov    -0xe8(%rbp),%eax
  1014d1:	83 f8 2f             	cmp    $0x2f,%eax
  1014d4:	77 23                	ja     1014f9 <kprintf+0x50b>
  1014d6:	48 8b 85 28 ff ff ff 	mov    -0xd8(%rbp),%rax
  1014dd:	8b 8d 18 ff ff ff    	mov    -0xe8(%rbp),%ecx
  1014e3:	89 c9                	mov    %ecx,%ecx
  1014e5:	48 01 c8             	add    %rcx,%rax
  1014e8:	8b 8d 18 ff ff ff    	mov    -0xe8(%rbp),%ecx
  1014ee:	83 c1 08             	add    $0x8,%ecx
  1014f1:	89 8d 18 ff ff ff    	mov    %ecx,-0xe8(%rbp)
  1014f7:	eb 12                	jmp    10150b <kprintf+0x51d>
  1014f9:	48 8b 85 20 ff ff ff 	mov    -0xe0(%rbp),%rax
  101500:	48 8d 48 08          	lea    0x8(%rax),%rcx
  101504:	48 89 8d 20 ff ff ff 	mov    %rcx,-0xe0(%rbp)
  10150b:	48 8b 00             	mov    (%rax),%rax
  10150e:	41 b8 00 00 00 00    	mov    $0x0,%r8d
  101514:	b9 01 00 00 00       	mov    $0x1,%ecx
  101519:	be 10 00 00 00       	mov    $0x10,%esi
  10151e:	48 89 c7             	mov    %rax,%rdi
  101521:	e8 c3 f8 ff ff       	call   100de9 <print_uint>
  101526:	eb 32                	jmp    10155a <kprintf+0x56c>
  101528:	bf 25 00 00 00       	mov    $0x25,%edi
  10152d:	e8 49 f7 ff ff       	call   100c7b <print_char>
  101532:	48 8b 85 08 ff ff ff 	mov    -0xf8(%rbp),%rax
  101539:	0f b6 00             	movzbl (%rax),%eax
  10153c:	84 c0                	test   %al,%al
  10153e:	74 19                	je     101559 <kprintf+0x56b>
  101540:	48 8b 85 08 ff ff ff 	mov    -0xf8(%rbp),%rax
  101547:	0f b6 00             	movzbl (%rax),%eax
  10154a:	0f be c0             	movsbl %al,%eax
  10154d:	89 c7                	mov    %eax,%edi
  10154f:	e8 27 f7 ff ff       	call   100c7b <print_char>
  101554:	eb 03                	jmp    101559 <kprintf+0x56b>
  101556:	90                   	nop
  101557:	eb 01                	jmp    10155a <kprintf+0x56c>
  101559:	90                   	nop
  10155a:	48 8b 85 08 ff ff ff 	mov    -0xf8(%rbp),%rax
  101561:	0f b6 00             	movzbl (%rax),%eax
  101564:	84 c0                	test   %al,%al
  101566:	74 08                	je     101570 <kprintf+0x582>
  101568:	48 83 85 08 ff ff ff 	addq   $0x1,-0xf8(%rbp)
  10156f:	01 
  101570:	48 8b 85 08 ff ff ff 	mov    -0xf8(%rbp),%rax
  101577:	0f b6 00             	movzbl (%rax),%eax
  10157a:	84 c0                	test   %al,%al
  10157c:	0f 85 f7 fa ff ff    	jne    101079 <kprintf+0x8b>
  101582:	90                   	nop
  101583:	90                   	nop
  101584:	c9                   	leave
  101585:	c3                   	ret

0000000000101586 <spin_lock>:
  101586:	55                   	push   %rbp
  101587:	48 89 e5             	mov    %rsp,%rbp
  10158a:	48 83 ec 08          	sub    $0x8,%rsp
  10158e:	48 89 7d f8          	mov    %rdi,-0x8(%rbp)
  101592:	90                   	nop
  101593:	48 8b 55 f8          	mov    -0x8(%rbp),%rdx
  101597:	b8 01 00 00 00       	mov    $0x1,%eax
  10159c:	87 02                	xchg   %eax,(%rdx)
  10159e:	85 c0                	test   %eax,%eax
  1015a0:	75 f1                	jne    101593 <spin_lock+0xd>
  1015a2:	90                   	nop
  1015a3:	90                   	nop
  1015a4:	c9                   	leave
  1015a5:	c3                   	ret

00000000001015a6 <spin_unlock>:
  1015a6:	55                   	push   %rbp
  1015a7:	48 89 e5             	mov    %rsp,%rbp
  1015aa:	48 83 ec 08          	sub    $0x8,%rsp
  1015ae:	48 89 7d f8          	mov    %rdi,-0x8(%rbp)
  1015b2:	48 8b 45 f8          	mov    -0x8(%rbp),%rax
  1015b6:	ba 00 00 00 00       	mov    $0x0,%edx
  1015bb:	89 10                	mov    %edx,(%rax)
  1015bd:	90                   	nop
  1015be:	c9                   	leave
  1015bf:	c3                   	ret

00000000001015c0 <vga_memcpy>:
  1015c0:	55                   	push   %rbp
  1015c1:	48 89 e5             	mov    %rsp,%rbp
  1015c4:	48 83 ec 28          	sub    $0x28,%rsp
  1015c8:	48 89 7d e8          	mov    %rdi,-0x18(%rbp)
  1015cc:	48 89 75 e0          	mov    %rsi,-0x20(%rbp)
  1015d0:	89 55 dc             	mov    %edx,-0x24(%rbp)
  1015d3:	c7 45 fc 00 00 00 00 	movl   $0x0,-0x4(%rbp)
  1015da:	eb 23                	jmp    1015ff <vga_memcpy+0x3f>
  1015dc:	8b 45 fc             	mov    -0x4(%rbp),%eax
  1015df:	48 63 d0             	movslq %eax,%rdx
  1015e2:	48 8b 45 e8          	mov    -0x18(%rbp),%rax
  1015e6:	48 01 d0             	add    %rdx,%rax
  1015e9:	8b 55 fc             	mov    -0x4(%rbp),%edx
  1015ec:	48 63 ca             	movslq %edx,%rcx
  1015ef:	48 8b 55 e0          	mov    -0x20(%rbp),%rdx
  1015f3:	48 01 ca             	add    %rcx,%rdx
  1015f6:	0f b6 00             	movzbl (%rax),%eax
  1015f9:	88 02                	mov    %al,(%rdx)
  1015fb:	83 45 fc 01          	addl   $0x1,-0x4(%rbp)
  1015ff:	8b 45 fc             	mov    -0x4(%rbp),%eax
  101602:	3b 45 dc             	cmp    -0x24(%rbp),%eax
  101605:	7c d5                	jl     1015dc <vga_memcpy+0x1c>
  101607:	90                   	nop
  101608:	90                   	nop
  101609:	c9                   	leave
  10160a:	c3                   	ret

000000000010160b <kprint>:
  10160b:	55                   	push   %rbp
  10160c:	48 89 e5             	mov    %rsp,%rbp
  10160f:	48 83 ec 20          	sub    $0x20,%rsp
  101613:	48 89 7d e8          	mov    %rdi,-0x18(%rbp)
  101617:	bf 68 59 11 00       	mov    $0x115968,%edi
  10161c:	e8 65 ff ff ff       	call   101586 <spin_lock>
  101621:	e9 74 01 00 00       	jmp    10179a <kprint+0x18f>
  101626:	48 8b 45 e8          	mov    -0x18(%rbp),%rax
  10162a:	0f b6 00             	movzbl (%rax),%eax
  10162d:	3c 3c                	cmp    $0x3c,%al
  10162f:	0f 85 43 01 00 00    	jne    101778 <kprint+0x16d>
  101635:	48 8b 45 e8          	mov    -0x18(%rbp),%rax
  101639:	48 83 c0 01          	add    $0x1,%rax
  10163d:	0f b6 00             	movzbl (%rax),%eax
  101640:	3c 28                	cmp    $0x28,%al
  101642:	0f 85 30 01 00 00    	jne    101778 <kprint+0x16d>
  101648:	48 8b 45 e8          	mov    -0x18(%rbp),%rax
  10164c:	48 83 c0 02          	add    $0x2,%rax
  101650:	0f b6 00             	movzbl (%rax),%eax
  101653:	3c 2f                	cmp    $0x2f,%al
  101655:	76 0f                	jbe    101666 <kprint+0x5b>
  101657:	48 8b 45 e8          	mov    -0x18(%rbp),%rax
  10165b:	48 83 c0 02          	add    $0x2,%rax
  10165f:	0f b6 00             	movzbl (%rax),%eax
  101662:	3c 39                	cmp    $0x39,%al
  101664:	76 26                	jbe    10168c <kprint+0x81>
  101666:	48 8b 45 e8          	mov    -0x18(%rbp),%rax
  10166a:	48 83 c0 02          	add    $0x2,%rax
  10166e:	0f b6 00             	movzbl (%rax),%eax
  101671:	3c 40                	cmp    $0x40,%al
  101673:	0f 86 ff 00 00 00    	jbe    101778 <kprint+0x16d>
  101679:	48 8b 45 e8          	mov    -0x18(%rbp),%rax
  10167d:	48 83 c0 02          	add    $0x2,%rax
  101681:	0f b6 00             	movzbl (%rax),%eax
  101684:	3c 46                	cmp    $0x46,%al
  101686:	0f 87 ec 00 00 00    	ja     101778 <kprint+0x16d>
  10168c:	48 8b 45 e8          	mov    -0x18(%rbp),%rax
  101690:	48 83 c0 03          	add    $0x3,%rax
  101694:	0f b6 00             	movzbl (%rax),%eax
  101697:	3c 2f                	cmp    $0x2f,%al
  101699:	76 0f                	jbe    1016aa <kprint+0x9f>
  10169b:	48 8b 45 e8          	mov    -0x18(%rbp),%rax
  10169f:	48 83 c0 03          	add    $0x3,%rax
  1016a3:	0f b6 00             	movzbl (%rax),%eax
  1016a6:	3c 39                	cmp    $0x39,%al
  1016a8:	76 26                	jbe    1016d0 <kprint+0xc5>
  1016aa:	48 8b 45 e8          	mov    -0x18(%rbp),%rax
  1016ae:	48 83 c0 03          	add    $0x3,%rax
  1016b2:	0f b6 00             	movzbl (%rax),%eax
  1016b5:	3c 40                	cmp    $0x40,%al
  1016b7:	0f 86 bb 00 00 00    	jbe    101778 <kprint+0x16d>
  1016bd:	48 8b 45 e8          	mov    -0x18(%rbp),%rax
  1016c1:	48 83 c0 03          	add    $0x3,%rax
  1016c5:	0f b6 00             	movzbl (%rax),%eax
  1016c8:	3c 46                	cmp    $0x46,%al
  1016ca:	0f 87 a8 00 00 00    	ja     101778 <kprint+0x16d>
  1016d0:	48 8b 45 e8          	mov    -0x18(%rbp),%rax
  1016d4:	48 83 c0 04          	add    $0x4,%rax
  1016d8:	0f b6 00             	movzbl (%rax),%eax
  1016db:	3c 29                	cmp    $0x29,%al
  1016dd:	0f 85 95 00 00 00    	jne    101778 <kprint+0x16d>
  1016e3:	48 8b 45 e8          	mov    -0x18(%rbp),%rax
  1016e7:	48 83 c0 05          	add    $0x5,%rax
  1016eb:	0f b6 00             	movzbl (%rax),%eax
  1016ee:	3c 3e                	cmp    $0x3e,%al
  1016f0:	0f 85 82 00 00 00    	jne    101778 <kprint+0x16d>
  1016f6:	48 8b 45 e8          	mov    -0x18(%rbp),%rax
  1016fa:	48 83 c0 02          	add    $0x2,%rax
  1016fe:	0f b6 00             	movzbl (%rax),%eax
  101701:	3c 39                	cmp    $0x39,%al
  101703:	77 13                	ja     101718 <kprint+0x10d>
  101705:	48 8b 45 e8          	mov    -0x18(%rbp),%rax
  101709:	48 83 c0 02          	add    $0x2,%rax
  10170d:	0f b6 00             	movzbl (%rax),%eax
  101710:	83 e8 30             	sub    $0x30,%eax
  101713:	88 45 ff             	mov    %al,-0x1(%rbp)
  101716:	eb 11                	jmp    101729 <kprint+0x11e>
  101718:	48 8b 45 e8          	mov    -0x18(%rbp),%rax
  10171c:	48 83 c0 02          	add    $0x2,%rax
  101720:	0f b6 00             	movzbl (%rax),%eax
  101723:	83 e8 37             	sub    $0x37,%eax
  101726:	88 45 ff             	mov    %al,-0x1(%rbp)
  101729:	48 8b 45 e8          	mov    -0x18(%rbp),%rax
  10172d:	48 83 c0 03          	add    $0x3,%rax
  101731:	0f b6 00             	movzbl (%rax),%eax
  101734:	3c 39                	cmp    $0x39,%al
  101736:	77 13                	ja     10174b <kprint+0x140>
  101738:	48 8b 45 e8          	mov    -0x18(%rbp),%rax
  10173c:	48 83 c0 03          	add    $0x3,%rax
  101740:	0f b6 00             	movzbl (%rax),%eax
  101743:	83 e8 30             	sub    $0x30,%eax
  101746:	88 45 fe             	mov    %al,-0x2(%rbp)
  101749:	eb 11                	jmp    10175c <kprint+0x151>
  10174b:	48 8b 45 e8          	mov    -0x18(%rbp),%rax
  10174f:	48 83 c0 03          	add    $0x3,%rax
  101753:	0f b6 00             	movzbl (%rax),%eax
  101756:	83 e8 37             	sub    $0x37,%eax
  101759:	88 45 fe             	mov    %al,-0x2(%rbp)
  10175c:	0f b6 45 ff          	movzbl -0x1(%rbp),%eax
  101760:	c1 e0 04             	shl    $0x4,%eax
  101763:	89 c2                	mov    %eax,%edx
  101765:	0f b6 45 fe          	movzbl -0x2(%rbp),%eax
  101769:	09 d0                	or     %edx,%eax
  10176b:	88 05 a7 4d 00 00    	mov    %al,0x4da7(%rip)        # 106518 <color.0>
  101771:	48 83 45 e8 06       	addq   $0x6,-0x18(%rbp)
  101776:	eb 22                	jmp    10179a <kprint+0x18f>
  101778:	0f b6 05 99 4d 00 00 	movzbl 0x4d99(%rip),%eax        # 106518 <color.0>
  10177f:	0f b6 d0             	movzbl %al,%edx
  101782:	48 8b 45 e8          	mov    -0x18(%rbp),%rax
  101786:	0f b6 00             	movzbl (%rax),%eax
  101789:	0f b6 c0             	movzbl %al,%eax
  10178c:	89 d6                	mov    %edx,%esi
  10178e:	89 c7                	mov    %eax,%edi
  101790:	e8 21 00 00 00       	call   1017b6 <putchar>
  101795:	48 83 45 e8 01       	addq   $0x1,-0x18(%rbp)
  10179a:	48 8b 45 e8          	mov    -0x18(%rbp),%rax
  10179e:	0f b6 00             	movzbl (%rax),%eax
  1017a1:	84 c0                	test   %al,%al
  1017a3:	0f 85 7d fe ff ff    	jne    101626 <kprint+0x1b>
  1017a9:	bf 68 59 11 00       	mov    $0x115968,%edi
  1017ae:	e8 f3 fd ff ff       	call   1015a6 <spin_unlock>
  1017b3:	90                   	nop
  1017b4:	c9                   	leave
  1017b5:	c3                   	ret

00000000001017b6 <putchar>:
  1017b6:	55                   	push   %rbp
  1017b7:	48 89 e5             	mov    %rsp,%rbp
  1017ba:	48 83 ec 20          	sub    $0x20,%rsp
  1017be:	89 fa                	mov    %edi,%edx
  1017c0:	89 f0                	mov    %esi,%eax
  1017c2:	88 55 ec             	mov    %dl,-0x14(%rbp)
  1017c5:	88 45 e8             	mov    %al,-0x18(%rbp)
  1017c8:	b8 00 00 00 00       	mov    $0x0,%eax
  1017cd:	e8 34 03 00 00       	call   101b06 <get_cursor>
  1017d2:	66 89 45 fe          	mov    %ax,-0x2(%rbp)
  1017d6:	80 7d ec 0a          	cmpb   $0xa,-0x14(%rbp)
  1017da:	75 5a                	jne    101836 <putchar+0x80>
  1017dc:	0f b7 45 fe          	movzwl -0x2(%rbp),%eax
  1017e0:	66 2d 00 0f          	sub    $0xf00,%ax
  1017e4:	66 3d 9f 00          	cmp    $0x9f,%ax
  1017e8:	77 0f                	ja     1017f9 <putchar+0x43>
  1017ea:	b8 00 00 00 00       	mov    $0x0,%eax
  1017ef:	e8 5e 01 00 00       	call   101952 <scroll_line>
  1017f4:	e9 56 01 00 00       	jmp    10194f <putchar+0x199>
  1017f9:	0f b7 4d fe          	movzwl -0x2(%rbp),%ecx
  1017fd:	0f b7 c1             	movzwl %cx,%eax
  101800:	69 c0 cd cc 00 00    	imul   $0xcccd,%eax,%eax
  101806:	c1 e8 10             	shr    $0x10,%eax
  101809:	89 c2                	mov    %eax,%edx
  10180b:	66 c1 ea 07          	shr    $0x7,%dx
  10180f:	89 d0                	mov    %edx,%eax
  101811:	c1 e0 02             	shl    $0x2,%eax
  101814:	01 d0                	add    %edx,%eax
  101816:	c1 e0 05             	shl    $0x5,%eax
  101819:	29 c1                	sub    %eax,%ecx
  10181b:	89 ca                	mov    %ecx,%edx
  10181d:	0f b7 45 fe          	movzwl -0x2(%rbp),%eax
  101821:	29 d0                	sub    %edx,%eax
  101823:	66 05 a0 00          	add    $0xa0,%ax
  101827:	0f b7 c0             	movzwl %ax,%eax
  10182a:	89 c7                	mov    %eax,%edi
  10182c:	e8 28 03 00 00       	call   101b59 <set_cursor>
  101831:	e9 19 01 00 00       	jmp    10194f <putchar+0x199>
  101836:	80 7d ec 08          	cmpb   $0x8,-0x14(%rbp)
  10183a:	75 43                	jne    10187f <putchar+0xc9>
  10183c:	b8 00 00 00 00       	mov    $0x0,%eax
  101841:	e8 c0 02 00 00       	call   101b06 <get_cursor>
  101846:	83 e8 01             	sub    $0x1,%eax
  101849:	0f b7 c0             	movzwl %ax,%eax
  10184c:	89 c7                	mov    %eax,%edi
  10184e:	e8 06 03 00 00       	call   101b59 <set_cursor>
  101853:	0f b6 45 e8          	movzbl -0x18(%rbp),%eax
  101857:	89 c6                	mov    %eax,%esi
  101859:	bf 20 00 00 00       	mov    $0x20,%edi
  10185e:	e8 53 ff ff ff       	call   1017b6 <putchar>
  101863:	b8 00 00 00 00       	mov    $0x0,%eax
  101868:	e8 99 02 00 00       	call   101b06 <get_cursor>
  10186d:	83 e8 02             	sub    $0x2,%eax
  101870:	0f b7 c0             	movzwl %ax,%eax
  101873:	89 c7                	mov    %eax,%edi
  101875:	e8 df 02 00 00       	call   101b59 <set_cursor>
  10187a:	e9 d0 00 00 00       	jmp    10194f <putchar+0x199>
  10187f:	0f b7 45 fe          	movzwl -0x2(%rbp),%eax
  101883:	66 d1 e8             	shr    $1,%ax
  101886:	89 c2                	mov    %eax,%edx
  101888:	0f b7 c2             	movzwl %dx,%eax
  10188b:	69 c0 cd cc 00 00    	imul   $0xcccd,%eax,%eax
  101891:	c1 e8 10             	shr    $0x10,%eax
  101894:	66 c1 e8 06          	shr    $0x6,%ax
  101898:	66 89 45 fc          	mov    %ax,-0x4(%rbp)
  10189c:	0f b7 4d fc          	movzwl -0x4(%rbp),%ecx
  1018a0:	89 c8                	mov    %ecx,%eax
  1018a2:	c1 e0 02             	shl    $0x2,%eax
  1018a5:	01 c8                	add    %ecx,%eax
  1018a7:	c1 e0 04             	shl    $0x4,%eax
  1018aa:	29 c2                	sub    %eax,%edx
  1018ac:	66 89 55 fc          	mov    %dx,-0x4(%rbp)
  1018b0:	66 83 7d fc 4e       	cmpw   $0x4e,-0x4(%rbp)
  1018b5:	76 60                	jbe    101917 <putchar+0x161>
  1018b7:	0f b7 45 fe          	movzwl -0x2(%rbp),%eax
  1018bb:	66 2d 00 0f          	sub    $0xf00,%ax
  1018bf:	66 3d 9f 00          	cmp    $0x9f,%ax
  1018c3:	77 0c                	ja     1018d1 <putchar+0x11b>
  1018c5:	b8 00 00 00 00       	mov    $0x0,%eax
  1018ca:	e8 83 00 00 00       	call   101952 <scroll_line>
  1018cf:	eb 38                	jmp    101909 <putchar+0x153>
  1018d1:	0f b7 4d fe          	movzwl -0x2(%rbp),%ecx
  1018d5:	0f b7 c1             	movzwl %cx,%eax
  1018d8:	69 c0 cd cc 00 00    	imul   $0xcccd,%eax,%eax
  1018de:	c1 e8 10             	shr    $0x10,%eax
  1018e1:	89 c2                	mov    %eax,%edx
  1018e3:	66 c1 ea 07          	shr    $0x7,%dx
  1018e7:	89 d0                	mov    %edx,%eax
  1018e9:	c1 e0 02             	shl    $0x2,%eax
  1018ec:	01 d0                	add    %edx,%eax
  1018ee:	c1 e0 05             	shl    $0x5,%eax
  1018f1:	29 c1                	sub    %eax,%ecx
  1018f3:	89 ca                	mov    %ecx,%edx
  1018f5:	0f b7 45 fe          	movzwl -0x2(%rbp),%eax
  1018f9:	29 d0                	sub    %edx,%eax
  1018fb:	66 05 a0 00          	add    $0xa0,%ax
  1018ff:	0f b7 c0             	movzwl %ax,%eax
  101902:	89 c7                	mov    %eax,%edi
  101904:	e8 50 02 00 00       	call   101b59 <set_cursor>
  101909:	b8 00 00 00 00       	mov    $0x0,%eax
  10190e:	e8 f3 01 00 00       	call   101b06 <get_cursor>
  101913:	66 89 45 fe          	mov    %ax,-0x2(%rbp)
  101917:	66 81 7d fe a0 0f    	cmpw   $0xfa0,-0x2(%rbp)
  10191d:	75 0a                	jne    101929 <putchar+0x173>
  10191f:	b8 00 00 00 00       	mov    $0x0,%eax
  101924:	e8 29 00 00 00       	call   101952 <scroll_line>
  101929:	0f b7 55 fe          	movzwl -0x2(%rbp),%edx
  10192d:	0f b6 4d e8          	movzbl -0x18(%rbp),%ecx
  101931:	0f b6 45 ec          	movzbl -0x14(%rbp),%eax
  101935:	89 ce                	mov    %ecx,%esi
  101937:	89 c7                	mov    %eax,%edi
  101939:	e8 7d 01 00 00       	call   101abb <write>
  10193e:	0f b7 45 fe          	movzwl -0x2(%rbp),%eax
  101942:	83 c0 02             	add    $0x2,%eax
  101945:	0f b7 c0             	movzwl %ax,%eax
  101948:	89 c7                	mov    %eax,%edi
  10194a:	e8 0a 02 00 00       	call   101b59 <set_cursor>
  10194f:	90                   	nop
  101950:	c9                   	leave
  101951:	c3                   	ret

0000000000101952 <scroll_line>:
  101952:	55                   	push   %rbp
  101953:	48 89 e5             	mov    %rsp,%rbp
  101956:	48 83 ec 20          	sub    $0x20,%rsp
  10195a:	c6 45 ff 01          	movb   $0x1,-0x1(%rbp)
  10195e:	e9 a8 00 00 00       	jmp    101a0b <scroll_line+0xb9>
  101963:	c6 45 fe 00          	movb   $0x0,-0x2(%rbp)
  101967:	e9 8b 00 00 00       	jmp    1019f7 <scroll_line+0xa5>
  10196c:	0f b6 55 ff          	movzbl -0x1(%rbp),%edx
  101970:	89 d0                	mov    %edx,%eax
  101972:	c1 e0 02             	shl    $0x2,%eax
  101975:	01 d0                	add    %edx,%eax
  101977:	c1 e0 04             	shl    $0x4,%eax
  10197a:	89 c2                	mov    %eax,%edx
  10197c:	0f b6 45 fe          	movzbl -0x2(%rbp),%eax
  101980:	01 d0                	add    %edx,%eax
  101982:	01 c0                	add    %eax,%eax
  101984:	66 89 45 ee          	mov    %ax,-0x12(%rbp)
  101988:	0f b6 45 ff          	movzbl -0x1(%rbp),%eax
  10198c:	8d 50 ff             	lea    -0x1(%rax),%edx
  10198f:	89 d0                	mov    %edx,%eax
  101991:	c1 e0 02             	shl    $0x2,%eax
  101994:	01 d0                	add    %edx,%eax
  101996:	c1 e0 04             	shl    $0x4,%eax
  101999:	89 c2                	mov    %eax,%edx
  10199b:	0f b6 45 fe          	movzbl -0x2(%rbp),%eax
  10199f:	01 d0                	add    %edx,%eax
  1019a1:	01 c0                	add    %eax,%eax
  1019a3:	66 89 45 ec          	mov    %ax,-0x14(%rbp)
  1019a7:	48 c7 45 e0 00 80 0b 	movq   $0xb8000,-0x20(%rbp)
  1019ae:	00 
  1019af:	0f b7 55 ee          	movzwl -0x12(%rbp),%edx
  1019b3:	48 8b 45 e0          	mov    -0x20(%rbp),%rax
  1019b7:	48 01 d0             	add    %rdx,%rax
  1019ba:	0f b7 4d ec          	movzwl -0x14(%rbp),%ecx
  1019be:	48 8b 55 e0          	mov    -0x20(%rbp),%rdx
  1019c2:	48 01 ca             	add    %rcx,%rdx
  1019c5:	0f b6 00             	movzbl (%rax),%eax
  1019c8:	88 02                	mov    %al,(%rdx)
  1019ca:	0f b7 45 ee          	movzwl -0x12(%rbp),%eax
  1019ce:	48 8d 50 01          	lea    0x1(%rax),%rdx
  1019d2:	48 8b 45 e0          	mov    -0x20(%rbp),%rax
  1019d6:	48 01 d0             	add    %rdx,%rax
  1019d9:	0f b7 55 ec          	movzwl -0x14(%rbp),%edx
  1019dd:	48 8d 4a 01          	lea    0x1(%rdx),%rcx
  1019e1:	48 8b 55 e0          	mov    -0x20(%rbp),%rdx
  1019e5:	48 01 ca             	add    %rcx,%rdx
  1019e8:	0f b6 00             	movzbl (%rax),%eax
  1019eb:	88 02                	mov    %al,(%rdx)
  1019ed:	0f b6 45 fe          	movzbl -0x2(%rbp),%eax
  1019f1:	83 c0 01             	add    $0x1,%eax
  1019f4:	88 45 fe             	mov    %al,-0x2(%rbp)
  1019f7:	80 7d fe 4f          	cmpb   $0x4f,-0x2(%rbp)
  1019fb:	0f 86 6b ff ff ff    	jbe    10196c <scroll_line+0x1a>
  101a01:	0f b6 45 ff          	movzbl -0x1(%rbp),%eax
  101a05:	83 c0 01             	add    $0x1,%eax
  101a08:	88 45 ff             	mov    %al,-0x1(%rbp)
  101a0b:	80 7d ff 18          	cmpb   $0x18,-0x1(%rbp)
  101a0f:	0f 86 4e ff ff ff    	jbe    101963 <scroll_line+0x11>
  101a15:	66 c7 45 fa 00 0f    	movw   $0xf00,-0x6(%rbp)
  101a1b:	c6 45 fd 00          	movb   $0x0,-0x3(%rbp)
  101a1f:	eb 47                	jmp    101a68 <scroll_line+0x116>
  101a21:	48 c7 45 f0 00 80 0b 	movq   $0xb8000,-0x10(%rbp)
  101a28:	00 
  101a29:	0f b7 45 fa          	movzwl -0x6(%rbp),%eax
  101a2d:	0f b6 55 fd          	movzbl -0x3(%rbp),%edx
  101a31:	01 d2                	add    %edx,%edx
  101a33:	01 d0                	add    %edx,%eax
  101a35:	48 63 d0             	movslq %eax,%rdx
  101a38:	48 8b 45 f0          	mov    -0x10(%rbp),%rax
  101a3c:	48 01 d0             	add    %rdx,%rax
  101a3f:	c6 00 20             	movb   $0x20,(%rax)
  101a42:	0f b7 45 fa          	movzwl -0x6(%rbp),%eax
  101a46:	0f b6 55 fd          	movzbl -0x3(%rbp),%edx
  101a4a:	01 d2                	add    %edx,%edx
  101a4c:	01 d0                	add    %edx,%eax
  101a4e:	48 98                	cltq
  101a50:	48 8d 50 01          	lea    0x1(%rax),%rdx
  101a54:	48 8b 45 f0          	mov    -0x10(%rbp),%rax
  101a58:	48 01 d0             	add    %rdx,%rax
  101a5b:	c6 00 07             	movb   $0x7,(%rax)
  101a5e:	0f b6 45 fd          	movzbl -0x3(%rbp),%eax
  101a62:	83 c0 01             	add    $0x1,%eax
  101a65:	88 45 fd             	mov    %al,-0x3(%rbp)
  101a68:	80 7d fd 4f          	cmpb   $0x4f,-0x3(%rbp)
  101a6c:	76 b3                	jbe    101a21 <scroll_line+0xcf>
  101a6e:	0f b7 45 fa          	movzwl -0x6(%rbp),%eax
  101a72:	89 c7                	mov    %eax,%edi
  101a74:	e8 e0 00 00 00       	call   101b59 <set_cursor>
  101a79:	90                   	nop
  101a7a:	c9                   	leave
  101a7b:	c3                   	ret

0000000000101a7c <kclear>:
  101a7c:	55                   	push   %rbp
  101a7d:	48 89 e5             	mov    %rsp,%rbp
  101a80:	48 83 ec 10          	sub    $0x10,%rsp
  101a84:	66 c7 45 fe 00 00    	movw   $0x0,-0x2(%rbp)
  101a8a:	eb 1a                	jmp    101aa6 <kclear+0x2a>
  101a8c:	0f b7 45 fe          	movzwl -0x2(%rbp),%eax
  101a90:	89 c2                	mov    %eax,%edx
  101a92:	be 07 00 00 00       	mov    $0x7,%esi
  101a97:	bf 00 00 00 00       	mov    $0x0,%edi
  101a9c:	e8 1a 00 00 00       	call   101abb <write>
  101aa1:	66 83 45 fe 01       	addw   $0x1,-0x2(%rbp)
  101aa6:	66 81 7d fe 9f 0f    	cmpw   $0xf9f,-0x2(%rbp)
  101aac:	76 de                	jbe    101a8c <kclear+0x10>
  101aae:	bf 00 00 00 00       	mov    $0x0,%edi
  101ab3:	e8 a1 00 00 00       	call   101b59 <set_cursor>
  101ab8:	90                   	nop
  101ab9:	c9                   	leave
  101aba:	c3                   	ret

0000000000101abb <write>:
  101abb:	55                   	push   %rbp
  101abc:	48 89 e5             	mov    %rsp,%rbp
  101abf:	48 83 ec 20          	sub    $0x20,%rsp
  101ac3:	89 f1                	mov    %esi,%ecx
  101ac5:	89 d0                	mov    %edx,%eax
  101ac7:	89 fa                	mov    %edi,%edx
  101ac9:	88 55 ec             	mov    %dl,-0x14(%rbp)
  101acc:	89 ca                	mov    %ecx,%edx
  101ace:	88 55 e8             	mov    %dl,-0x18(%rbp)
  101ad1:	66 89 45 e4          	mov    %ax,-0x1c(%rbp)
  101ad5:	48 c7 45 f8 00 80 0b 	movq   $0xb8000,-0x8(%rbp)
  101adc:	00 
  101add:	0f b7 55 e4          	movzwl -0x1c(%rbp),%edx
  101ae1:	48 8b 45 f8          	mov    -0x8(%rbp),%rax
  101ae5:	48 01 c2             	add    %rax,%rdx
  101ae8:	0f b6 45 ec          	movzbl -0x14(%rbp),%eax
  101aec:	88 02                	mov    %al,(%rdx)
  101aee:	0f b7 45 e4          	movzwl -0x1c(%rbp),%eax
  101af2:	48 8d 50 01          	lea    0x1(%rax),%rdx
  101af6:	48 8b 45 f8          	mov    -0x8(%rbp),%rax
  101afa:	48 01 c2             	add    %rax,%rdx
  101afd:	0f b6 45 e8          	movzbl -0x18(%rbp),%eax
  101b01:	88 02                	mov    %al,(%rdx)
  101b03:	90                   	nop
  101b04:	c9                   	leave
  101b05:	c3                   	ret

0000000000101b06 <get_cursor>:
  101b06:	55                   	push   %rbp
  101b07:	48 89 e5             	mov    %rsp,%rbp
  101b0a:	48 83 ec 10          	sub    $0x10,%rsp
  101b0e:	be 0e 00 00 00       	mov    $0xe,%esi
  101b13:	bf d4 03 00 00       	mov    $0x3d4,%edi
  101b18:	e8 7e e6 ff ff       	call   10019b <outb>
  101b1d:	bf d5 03 00 00       	mov    $0x3d5,%edi
  101b22:	e8 56 e6 ff ff       	call   10017d <inb>
  101b27:	88 45 ff             	mov    %al,-0x1(%rbp)
  101b2a:	be 0f 00 00 00       	mov    $0xf,%esi
  101b2f:	bf d4 03 00 00       	mov    $0x3d4,%edi
  101b34:	e8 62 e6 ff ff       	call   10019b <outb>
  101b39:	bf d5 03 00 00       	mov    $0x3d5,%edi
  101b3e:	e8 3a e6 ff ff       	call   10017d <inb>
  101b43:	88 45 fe             	mov    %al,-0x2(%rbp)
  101b46:	0f b6 45 ff          	movzbl -0x1(%rbp),%eax
  101b4a:	c1 e0 08             	shl    $0x8,%eax
  101b4d:	89 c2                	mov    %eax,%edx
  101b4f:	0f b6 45 fe          	movzbl -0x2(%rbp),%eax
  101b53:	01 d0                	add    %edx,%eax
  101b55:	01 c0                	add    %eax,%eax
  101b57:	c9                   	leave
  101b58:	c3                   	ret

0000000000101b59 <set_cursor>:
  101b59:	55                   	push   %rbp
  101b5a:	48 89 e5             	mov    %rsp,%rbp
  101b5d:	48 83 ec 10          	sub    $0x10,%rsp
  101b61:	89 f8                	mov    %edi,%eax
  101b63:	66 89 45 fc          	mov    %ax,-0x4(%rbp)
  101b67:	66 d1 6d fc          	shrw   $1,-0x4(%rbp)
  101b6b:	be 0e 00 00 00       	mov    $0xe,%esi
  101b70:	bf d4 03 00 00       	mov    $0x3d4,%edi
  101b75:	e8 21 e6 ff ff       	call   10019b <outb>
  101b7a:	0f b7 45 fc          	movzwl -0x4(%rbp),%eax
  101b7e:	66 c1 e8 08          	shr    $0x8,%ax
  101b82:	0f b6 c0             	movzbl %al,%eax
  101b85:	89 c6                	mov    %eax,%esi
  101b87:	bf d5 03 00 00       	mov    $0x3d5,%edi
  101b8c:	e8 0a e6 ff ff       	call   10019b <outb>
  101b91:	be 0f 00 00 00       	mov    $0xf,%esi
  101b96:	bf d4 03 00 00       	mov    $0x3d4,%edi
  101b9b:	e8 fb e5 ff ff       	call   10019b <outb>
  101ba0:	0f b7 45 fc          	movzwl -0x4(%rbp),%eax
  101ba4:	0f b6 c0             	movzbl %al,%eax
  101ba7:	89 c6                	mov    %eax,%esi
  101ba9:	bf d5 03 00 00       	mov    $0x3d5,%edi
  101bae:	e8 e8 e5 ff ff       	call   10019b <outb>
  101bb3:	90                   	nop
  101bb4:	c9                   	leave
  101bb5:	c3                   	ret

0000000000101bb6 <get_cursor_x>:
  101bb6:	55                   	push   %rbp
  101bb7:	48 89 e5             	mov    %rsp,%rbp
  101bba:	48 83 ec 10          	sub    $0x10,%rsp
  101bbe:	b8 00 00 00 00       	mov    $0x0,%eax
  101bc3:	e8 3e ff ff ff       	call   101b06 <get_cursor>
  101bc8:	66 89 45 fe          	mov    %ax,-0x2(%rbp)
  101bcc:	0f b7 45 fe          	movzwl -0x2(%rbp),%eax
  101bd0:	66 d1 e8             	shr    $1,%ax
  101bd3:	89 c1                	mov    %eax,%ecx
  101bd5:	0f b7 c1             	movzwl %cx,%eax
  101bd8:	69 c0 cd cc 00 00    	imul   $0xcccd,%eax,%eax
  101bde:	c1 e8 10             	shr    $0x10,%eax
  101be1:	89 c2                	mov    %eax,%edx
  101be3:	66 c1 ea 06          	shr    $0x6,%dx
  101be7:	89 d0                	mov    %edx,%eax
  101be9:	c1 e0 02             	shl    $0x2,%eax
  101bec:	01 d0                	add    %edx,%eax
  101bee:	c1 e0 04             	shl    $0x4,%eax
  101bf1:	29 c1                	sub    %eax,%ecx
  101bf3:	89 ca                	mov    %ecx,%edx
  101bf5:	89 d0                	mov    %edx,%eax
  101bf7:	c9                   	leave
  101bf8:	c3                   	ret

0000000000101bf9 <get_cursor_y>:
  101bf9:	55                   	push   %rbp
  101bfa:	48 89 e5             	mov    %rsp,%rbp
  101bfd:	48 83 ec 10          	sub    $0x10,%rsp
  101c01:	b8 00 00 00 00       	mov    $0x0,%eax
  101c06:	e8 fb fe ff ff       	call   101b06 <get_cursor>
  101c0b:	66 89 45 fe          	mov    %ax,-0x2(%rbp)
  101c0f:	0f b7 45 fe          	movzwl -0x2(%rbp),%eax
  101c13:	0f b7 c0             	movzwl %ax,%eax
  101c16:	69 c0 cd cc 00 00    	imul   $0xcccd,%eax,%eax
  101c1c:	c1 e8 10             	shr    $0x10,%eax
  101c1f:	66 c1 e8 07          	shr    $0x7,%ax
  101c23:	c9                   	leave
  101c24:	c3                   	ret

0000000000101c25 <set_cursor_xy>:
  101c25:	55                   	push   %rbp
  101c26:	48 89 e5             	mov    %rsp,%rbp
  101c29:	48 83 ec 20          	sub    $0x20,%rsp
  101c2d:	89 fa                	mov    %edi,%edx
  101c2f:	89 f0                	mov    %esi,%eax
  101c31:	88 55 ec             	mov    %dl,-0x14(%rbp)
  101c34:	88 45 e8             	mov    %al,-0x18(%rbp)
  101c37:	80 7d ec 4f          	cmpb   $0x4f,-0x14(%rbp)
  101c3b:	76 04                	jbe    101c41 <set_cursor_xy+0x1c>
  101c3d:	c6 45 ec 4f          	movb   $0x4f,-0x14(%rbp)
  101c41:	80 7d e8 18          	cmpb   $0x18,-0x18(%rbp)
  101c45:	76 04                	jbe    101c4b <set_cursor_xy+0x26>
  101c47:	c6 45 e8 18          	movb   $0x18,-0x18(%rbp)
  101c4b:	0f b6 55 e8          	movzbl -0x18(%rbp),%edx
  101c4f:	89 d0                	mov    %edx,%eax
  101c51:	c1 e0 02             	shl    $0x2,%eax
  101c54:	01 d0                	add    %edx,%eax
  101c56:	c1 e0 04             	shl    $0x4,%eax
  101c59:	89 c2                	mov    %eax,%edx
  101c5b:	0f b6 45 ec          	movzbl -0x14(%rbp),%eax
  101c5f:	01 d0                	add    %edx,%eax
  101c61:	66 89 45 fe          	mov    %ax,-0x2(%rbp)
  101c65:	0f b7 45 fe          	movzwl -0x2(%rbp),%eax
  101c69:	01 c0                	add    %eax,%eax
  101c6b:	0f b7 c0             	movzwl %ax,%eax
  101c6e:	89 c7                	mov    %eax,%edi
  101c70:	e8 e4 fe ff ff       	call   101b59 <set_cursor>
  101c75:	90                   	nop
  101c76:	c9                   	leave
  101c77:	c3                   	ret

0000000000101c78 <disable_cursor>:
  101c78:	55                   	push   %rbp
  101c79:	48 89 e5             	mov    %rsp,%rbp
  101c7c:	be 0a 00 00 00       	mov    $0xa,%esi
  101c81:	bf d4 03 00 00       	mov    $0x3d4,%edi
  101c86:	e8 10 e5 ff ff       	call   10019b <outb>
  101c8b:	be 20 00 00 00       	mov    $0x20,%esi
  101c90:	bf d5 03 00 00       	mov    $0x3d5,%edi
  101c95:	e8 01 e5 ff ff       	call   10019b <outb>
  101c9a:	90                   	nop
  101c9b:	5d                   	pop    %rbp
  101c9c:	c3                   	ret

0000000000101c9d <kprint_hex>:
  101c9d:	55                   	push   %rbp
  101c9e:	48 89 e5             	mov    %rsp,%rbp
  101ca1:	48 83 ec 30          	sub    $0x30,%rsp
  101ca5:	89 7d dc             	mov    %edi,-0x24(%rbp)
  101ca8:	c6 45 f6 00          	movb   $0x0,-0xa(%rbp)
  101cac:	c7 45 fc 07 00 00 00 	movl   $0x7,-0x4(%rbp)
  101cb3:	eb 3d                	jmp    101cf2 <kprint_hex+0x55>
  101cb5:	8b 45 dc             	mov    -0x24(%rbp),%eax
  101cb8:	83 e0 0f             	and    $0xf,%eax
  101cbb:	88 45 f7             	mov    %al,-0x9(%rbp)
  101cbe:	80 7d f7 09          	cmpb   $0x9,-0x9(%rbp)
  101cc2:	77 14                	ja     101cd8 <kprint_hex+0x3b>
  101cc4:	0f b6 45 f7          	movzbl -0x9(%rbp),%eax
  101cc8:	83 c0 30             	add    $0x30,%eax
  101ccb:	89 c2                	mov    %eax,%edx
  101ccd:	8b 45 fc             	mov    -0x4(%rbp),%eax
  101cd0:	48 98                	cltq
  101cd2:	88 54 05 ee          	mov    %dl,-0x12(%rbp,%rax,1)
  101cd6:	eb 12                	jmp    101cea <kprint_hex+0x4d>
  101cd8:	0f b6 45 f7          	movzbl -0x9(%rbp),%eax
  101cdc:	83 c0 37             	add    $0x37,%eax
  101cdf:	89 c2                	mov    %eax,%edx
  101ce1:	8b 45 fc             	mov    -0x4(%rbp),%eax
  101ce4:	48 98                	cltq
  101ce6:	88 54 05 ee          	mov    %dl,-0x12(%rbp,%rax,1)
  101cea:	c1 6d dc 04          	shrl   $0x4,-0x24(%rbp)
  101cee:	83 6d fc 01          	subl   $0x1,-0x4(%rbp)
  101cf2:	83 7d fc 00          	cmpl   $0x0,-0x4(%rbp)
  101cf6:	79 bd                	jns    101cb5 <kprint_hex+0x18>
  101cf8:	c7 45 f8 00 00 00 00 	movl   $0x0,-0x8(%rbp)
  101cff:	eb 1d                	jmp    101d1e <kprint_hex+0x81>
  101d01:	8b 45 f8             	mov    -0x8(%rbp),%eax
  101d04:	48 98                	cltq
  101d06:	0f b6 44 05 ee       	movzbl -0x12(%rbp,%rax,1),%eax
  101d0b:	0f b6 c0             	movzbl %al,%eax
  101d0e:	be 07 00 00 00       	mov    $0x7,%esi
  101d13:	89 c7                	mov    %eax,%edi
  101d15:	e8 9c fa ff ff       	call   1017b6 <putchar>
  101d1a:	83 45 f8 01          	addl   $0x1,-0x8(%rbp)
  101d1e:	83 7d f8 07          	cmpl   $0x7,-0x8(%rbp)
  101d22:	7e dd                	jle    101d01 <kprint_hex+0x64>
  101d24:	90                   	nop
  101d25:	90                   	nop
  101d26:	c9                   	leave
  101d27:	c3                   	ret

0000000000101d28 <kprintc>:
  101d28:	55                   	push   %rbp
  101d29:	48 89 e5             	mov    %rsp,%rbp
  101d2c:	48 83 ec 10          	sub    $0x10,%rsp
  101d30:	48 89 7d f8          	mov    %rdi,-0x8(%rbp)
  101d34:	89 f0                	mov    %esi,%eax
  101d36:	88 45 f4             	mov    %al,-0xc(%rbp)
  101d39:	eb 67                	jmp    101da2 <kprintc+0x7a>
  101d3b:	48 8b 45 f8          	mov    -0x8(%rbp),%rax
  101d3f:	0f b6 00             	movzbl (%rax),%eax
  101d42:	3c 08                	cmp    $0x8,%al
  101d44:	75 29                	jne    101d6f <kprintc+0x47>
  101d46:	0f b6 45 f4          	movzbl -0xc(%rbp),%eax
  101d4a:	89 c6                	mov    %eax,%esi
  101d4c:	bf 20 00 00 00       	mov    $0x20,%edi
  101d51:	e8 60 fa ff ff       	call   1017b6 <putchar>
  101d56:	b8 00 00 00 00       	mov    $0x0,%eax
  101d5b:	e8 a6 fd ff ff       	call   101b06 <get_cursor>
  101d60:	83 e8 02             	sub    $0x2,%eax
  101d63:	0f b7 c0             	movzwl %ax,%eax
  101d66:	89 c7                	mov    %eax,%edi
  101d68:	e8 ec fd ff ff       	call   101b59 <set_cursor>
  101d6d:	eb 2e                	jmp    101d9d <kprintc+0x75>
  101d6f:	0f b6 55 f4          	movzbl -0xc(%rbp),%edx
  101d73:	48 8b 45 f8          	mov    -0x8(%rbp),%rax
  101d77:	0f b6 00             	movzbl (%rax),%eax
  101d7a:	0f b6 c0             	movzbl %al,%eax
  101d7d:	89 d6                	mov    %edx,%esi
  101d7f:	89 c7                	mov    %eax,%edi
  101d81:	e8 30 fa ff ff       	call   1017b6 <putchar>
  101d86:	b8 00 00 00 00       	mov    $0x0,%eax
  101d8b:	e8 76 fd ff ff       	call   101b06 <get_cursor>
  101d90:	83 c0 01             	add    $0x1,%eax
  101d93:	0f b7 c0             	movzwl %ax,%eax
  101d96:	89 c7                	mov    %eax,%edi
  101d98:	e8 bc fd ff ff       	call   101b59 <set_cursor>
  101d9d:	48 83 45 f8 01       	addq   $0x1,-0x8(%rbp)
  101da2:	48 8b 45 f8          	mov    -0x8(%rbp),%rax
  101da6:	0f b6 00             	movzbl (%rax),%eax
  101da9:	84 c0                	test   %al,%al
  101dab:	75 8e                	jne    101d3b <kprintc+0x13>
  101dad:	90                   	nop
  101dae:	90                   	nop
  101daf:	c9                   	leave
  101db0:	c3                   	ret

0000000000101db1 <int_to_str>:
  101db1:	55                   	push   %rbp
  101db2:	48 89 e5             	mov    %rsp,%rbp
  101db5:	48 83 ec 30          	sub    $0x30,%rsp
  101db9:	89 7d dc             	mov    %edi,-0x24(%rbp)
  101dbc:	48 89 75 d0          	mov    %rsi,-0x30(%rbp)
  101dc0:	c7 45 fc 00 00 00 00 	movl   $0x0,-0x4(%rbp)
  101dc7:	c7 45 f8 00 00 00 00 	movl   $0x0,-0x8(%rbp)
  101dce:	83 7d dc 00          	cmpl   $0x0,-0x24(%rbp)
  101dd2:	75 2b                	jne    101dff <int_to_str+0x4e>
  101dd4:	8b 45 fc             	mov    -0x4(%rbp),%eax
  101dd7:	8d 50 01             	lea    0x1(%rax),%edx
  101dda:	89 55 fc             	mov    %edx,-0x4(%rbp)
  101ddd:	48 63 d0             	movslq %eax,%rdx
  101de0:	48 8b 45 d0          	mov    -0x30(%rbp),%rax
  101de4:	48 01 d0             	add    %rdx,%rax
  101de7:	c6 00 30             	movb   $0x30,(%rax)
  101dea:	8b 45 fc             	mov    -0x4(%rbp),%eax
  101ded:	48 63 d0             	movslq %eax,%rdx
  101df0:	48 8b 45 d0          	mov    -0x30(%rbp),%rax
  101df4:	48 01 d0             	add    %rdx,%rax
  101df7:	c6 00 00             	movb   $0x0,(%rax)
  101dfa:	e9 19 01 00 00       	jmp    101f18 <int_to_str+0x167>
  101dff:	83 7d dc 00          	cmpl   $0x0,-0x24(%rbp)
  101e03:	79 72                	jns    101e77 <int_to_str+0xc6>
  101e05:	c7 45 f8 01 00 00 00 	movl   $0x1,-0x8(%rbp)
  101e0c:	f7 5d dc             	negl   -0x24(%rbp)
  101e0f:	eb 66                	jmp    101e77 <int_to_str+0xc6>
  101e11:	8b 55 dc             	mov    -0x24(%rbp),%edx
  101e14:	48 63 c2             	movslq %edx,%rax
  101e17:	48 69 c0 67 66 66 66 	imul   $0x66666667,%rax,%rax
  101e1e:	48 c1 e8 20          	shr    $0x20,%rax
  101e22:	89 c1                	mov    %eax,%ecx
  101e24:	c1 f9 02             	sar    $0x2,%ecx
  101e27:	89 d0                	mov    %edx,%eax
  101e29:	c1 f8 1f             	sar    $0x1f,%eax
  101e2c:	29 c1                	sub    %eax,%ecx
  101e2e:	89 c8                	mov    %ecx,%eax
  101e30:	c1 e0 02             	shl    $0x2,%eax
  101e33:	01 c8                	add    %ecx,%eax
  101e35:	01 c0                	add    %eax,%eax
  101e37:	29 c2                	sub    %eax,%edx
  101e39:	89 55 ec             	mov    %edx,-0x14(%rbp)
  101e3c:	8b 45 ec             	mov    -0x14(%rbp),%eax
  101e3f:	8d 48 30             	lea    0x30(%rax),%ecx
  101e42:	8b 45 fc             	mov    -0x4(%rbp),%eax
  101e45:	8d 50 01             	lea    0x1(%rax),%edx
  101e48:	89 55 fc             	mov    %edx,-0x4(%rbp)
  101e4b:	48 63 d0             	movslq %eax,%rdx
  101e4e:	48 8b 45 d0          	mov    -0x30(%rbp),%rax
  101e52:	48 01 d0             	add    %rdx,%rax
  101e55:	89 ca                	mov    %ecx,%edx
  101e57:	88 10                	mov    %dl,(%rax)
  101e59:	8b 45 dc             	mov    -0x24(%rbp),%eax
  101e5c:	48 63 d0             	movslq %eax,%rdx
  101e5f:	48 69 d2 67 66 66 66 	imul   $0x66666667,%rdx,%rdx
  101e66:	48 c1 ea 20          	shr    $0x20,%rdx
  101e6a:	89 d1                	mov    %edx,%ecx
  101e6c:	c1 f9 02             	sar    $0x2,%ecx
  101e6f:	99                   	cltd
  101e70:	89 c8                	mov    %ecx,%eax
  101e72:	29 d0                	sub    %edx,%eax
  101e74:	89 45 dc             	mov    %eax,-0x24(%rbp)
  101e77:	83 7d dc 00          	cmpl   $0x0,-0x24(%rbp)
  101e7b:	75 94                	jne    101e11 <int_to_str+0x60>
  101e7d:	83 7d f8 00          	cmpl   $0x0,-0x8(%rbp)
  101e81:	74 16                	je     101e99 <int_to_str+0xe8>
  101e83:	8b 45 fc             	mov    -0x4(%rbp),%eax
  101e86:	8d 50 01             	lea    0x1(%rax),%edx
  101e89:	89 55 fc             	mov    %edx,-0x4(%rbp)
  101e8c:	48 63 d0             	movslq %eax,%rdx
  101e8f:	48 8b 45 d0          	mov    -0x30(%rbp),%rax
  101e93:	48 01 d0             	add    %rdx,%rax
  101e96:	c6 00 2d             	movb   $0x2d,(%rax)
  101e99:	8b 45 fc             	mov    -0x4(%rbp),%eax
  101e9c:	48 63 d0             	movslq %eax,%rdx
  101e9f:	48 8b 45 d0          	mov    -0x30(%rbp),%rax
  101ea3:	48 01 d0             	add    %rdx,%rax
  101ea6:	c6 00 00             	movb   $0x0,(%rax)
  101ea9:	c7 45 f4 00 00 00 00 	movl   $0x0,-0xc(%rbp)
  101eb0:	eb 55                	jmp    101f07 <int_to_str+0x156>
  101eb2:	8b 45 f4             	mov    -0xc(%rbp),%eax
  101eb5:	48 63 d0             	movslq %eax,%rdx
  101eb8:	48 8b 45 d0          	mov    -0x30(%rbp),%rax
  101ebc:	48 01 d0             	add    %rdx,%rax
  101ebf:	0f b6 00             	movzbl (%rax),%eax
  101ec2:	88 45 f3             	mov    %al,-0xd(%rbp)
  101ec5:	8b 45 fc             	mov    -0x4(%rbp),%eax
  101ec8:	2b 45 f4             	sub    -0xc(%rbp),%eax
  101ecb:	48 98                	cltq
  101ecd:	48 8d 50 ff          	lea    -0x1(%rax),%rdx
  101ed1:	48 8b 45 d0          	mov    -0x30(%rbp),%rax
  101ed5:	48 01 d0             	add    %rdx,%rax
  101ed8:	8b 55 f4             	mov    -0xc(%rbp),%edx
  101edb:	48 63 ca             	movslq %edx,%rcx
  101ede:	48 8b 55 d0          	mov    -0x30(%rbp),%rdx
  101ee2:	48 01 ca             	add    %rcx,%rdx
  101ee5:	0f b6 00             	movzbl (%rax),%eax
  101ee8:	88 02                	mov    %al,(%rdx)
  101eea:	8b 45 fc             	mov    -0x4(%rbp),%eax
  101eed:	2b 45 f4             	sub    -0xc(%rbp),%eax
  101ef0:	48 98                	cltq
  101ef2:	48 8d 50 ff          	lea    -0x1(%rax),%rdx
  101ef6:	48 8b 45 d0          	mov    -0x30(%rbp),%rax
  101efa:	48 01 c2             	add    %rax,%rdx
  101efd:	0f b6 45 f3          	movzbl -0xd(%rbp),%eax
  101f01:	88 02                	mov    %al,(%rdx)
  101f03:	83 45 f4 01          	addl   $0x1,-0xc(%rbp)
  101f07:	8b 45 fc             	mov    -0x4(%rbp),%eax
  101f0a:	89 c2                	mov    %eax,%edx
  101f0c:	c1 ea 1f             	shr    $0x1f,%edx
  101f0f:	01 d0                	add    %edx,%eax
  101f11:	d1 f8                	sar    $1,%eax
  101f13:	39 45 f4             	cmp    %eax,-0xc(%rbp)
  101f16:	7c 9a                	jl     101eb2 <int_to_str+0x101>
  101f18:	c9                   	leave
  101f19:	c3                   	ret

0000000000101f1a <kprinti>:
  101f1a:	55                   	push   %rbp
  101f1b:	48 89 e5             	mov    %rsp,%rbp
  101f1e:	48 83 ec 20          	sub    $0x20,%rsp
  101f22:	89 7d ec             	mov    %edi,-0x14(%rbp)
  101f25:	48 8d 55 f4          	lea    -0xc(%rbp),%rdx
  101f29:	8b 45 ec             	mov    -0x14(%rbp),%eax
  101f2c:	48 89 d6             	mov    %rdx,%rsi
  101f2f:	89 c7                	mov    %eax,%edi
  101f31:	e8 7b fe ff ff       	call   101db1 <int_to_str>
  101f36:	48 8d 45 f4          	lea    -0xc(%rbp),%rax
  101f3a:	48 89 c7             	mov    %rax,%rdi
  101f3d:	e8 c9 f6 ff ff       	call   10160b <kprint>
  101f42:	90                   	nop
  101f43:	c9                   	leave
  101f44:	c3                   	ret

0000000000101f45 <kprintci>:
  101f45:	55                   	push   %rbp
  101f46:	48 89 e5             	mov    %rsp,%rbp
  101f49:	48 83 ec 20          	sub    $0x20,%rsp
  101f4d:	89 7d ec             	mov    %edi,-0x14(%rbp)
  101f50:	89 f0                	mov    %esi,%eax
  101f52:	88 45 e8             	mov    %al,-0x18(%rbp)
  101f55:	48 8d 55 f4          	lea    -0xc(%rbp),%rdx
  101f59:	8b 45 ec             	mov    -0x14(%rbp),%eax
  101f5c:	48 89 d6             	mov    %rdx,%rsi
  101f5f:	89 c7                	mov    %eax,%edi
  101f61:	e8 4b fe ff ff       	call   101db1 <int_to_str>
  101f66:	0f b6 55 e8          	movzbl -0x18(%rbp),%edx
  101f6a:	48 8d 45 f4          	lea    -0xc(%rbp),%rax
  101f6e:	89 d6                	mov    %edx,%esi
  101f70:	48 89 c7             	mov    %rax,%rdi
  101f73:	e8 b0 fd ff ff       	call   101d28 <kprintc>
  101f78:	90                   	nop
  101f79:	c9                   	leave
  101f7a:	c3                   	ret

0000000000101f7b <kprinti_vidmem>:
  101f7b:	55                   	push   %rbp
  101f7c:	48 89 e5             	mov    %rsp,%rbp
  101f7f:	48 83 ec 28          	sub    $0x28,%rsp
  101f83:	89 7d dc             	mov    %edi,-0x24(%rbp)
  101f86:	89 75 d8             	mov    %esi,-0x28(%rbp)
  101f89:	48 8d 55 e4          	lea    -0x1c(%rbp),%rdx
  101f8d:	8b 45 dc             	mov    -0x24(%rbp),%eax
  101f90:	48 89 d6             	mov    %rdx,%rsi
  101f93:	89 c7                	mov    %eax,%edi
  101f95:	e8 17 fe ff ff       	call   101db1 <int_to_str>
  101f9a:	48 c7 45 f0 00 80 0b 	movq   $0xb8000,-0x10(%rbp)
  101fa1:	00 
  101fa2:	c7 45 fc 00 00 00 00 	movl   $0x0,-0x4(%rbp)
  101fa9:	eb 40                	jmp    101feb <kprinti_vidmem+0x70>
  101fab:	8b 45 fc             	mov    -0x4(%rbp),%eax
  101fae:	8d 14 00             	lea    (%rax,%rax,1),%edx
  101fb1:	8b 45 d8             	mov    -0x28(%rbp),%eax
  101fb4:	01 d0                	add    %edx,%eax
  101fb6:	48 63 d0             	movslq %eax,%rdx
  101fb9:	48 8b 45 f0          	mov    -0x10(%rbp),%rax
  101fbd:	48 01 c2             	add    %rax,%rdx
  101fc0:	8b 45 fc             	mov    -0x4(%rbp),%eax
  101fc3:	48 98                	cltq
  101fc5:	0f b6 44 05 e4       	movzbl -0x1c(%rbp,%rax,1),%eax
  101fca:	88 02                	mov    %al,(%rdx)
  101fcc:	8b 45 fc             	mov    -0x4(%rbp),%eax
  101fcf:	8d 14 00             	lea    (%rax,%rax,1),%edx
  101fd2:	8b 45 d8             	mov    -0x28(%rbp),%eax
  101fd5:	01 d0                	add    %edx,%eax
  101fd7:	48 98                	cltq
  101fd9:	48 8d 50 01          	lea    0x1(%rax),%rdx
  101fdd:	48 8b 45 f0          	mov    -0x10(%rbp),%rax
  101fe1:	48 01 d0             	add    %rdx,%rax
  101fe4:	c6 00 07             	movb   $0x7,(%rax)
  101fe7:	83 45 fc 01          	addl   $0x1,-0x4(%rbp)
  101feb:	8b 45 fc             	mov    -0x4(%rbp),%eax
  101fee:	48 98                	cltq
  101ff0:	0f b6 44 05 e4       	movzbl -0x1c(%rbp,%rax,1),%eax
  101ff5:	84 c0                	test   %al,%al
  101ff7:	75 b2                	jne    101fab <kprinti_vidmem+0x30>
  101ff9:	90                   	nop
  101ffa:	90                   	nop
  101ffb:	c9                   	leave
  101ffc:	c3                   	ret

0000000000101ffd <kprintci_vidmem>:
  101ffd:	55                   	push   %rbp
  101ffe:	48 89 e5             	mov    %rsp,%rbp
  102001:	48 83 ec 30          	sub    $0x30,%rsp
  102005:	89 7d dc             	mov    %edi,-0x24(%rbp)
  102008:	89 f0                	mov    %esi,%eax
  10200a:	89 55 d4             	mov    %edx,-0x2c(%rbp)
  10200d:	88 45 d8             	mov    %al,-0x28(%rbp)
  102010:	48 8d 55 e4          	lea    -0x1c(%rbp),%rdx
  102014:	8b 45 dc             	mov    -0x24(%rbp),%eax
  102017:	48 89 d6             	mov    %rdx,%rsi
  10201a:	89 c7                	mov    %eax,%edi
  10201c:	e8 90 fd ff ff       	call   101db1 <int_to_str>
  102021:	48 c7 45 f0 00 80 0b 	movq   $0xb8000,-0x10(%rbp)
  102028:	00 
  102029:	c7 45 fc 00 00 00 00 	movl   $0x0,-0x4(%rbp)
  102030:	eb 43                	jmp    102075 <kprintci_vidmem+0x78>
  102032:	8b 45 fc             	mov    -0x4(%rbp),%eax
  102035:	8d 14 00             	lea    (%rax,%rax,1),%edx
  102038:	8b 45 d4             	mov    -0x2c(%rbp),%eax
  10203b:	01 d0                	add    %edx,%eax
  10203d:	48 63 d0             	movslq %eax,%rdx
  102040:	48 8b 45 f0          	mov    -0x10(%rbp),%rax
  102044:	48 01 c2             	add    %rax,%rdx
  102047:	8b 45 fc             	mov    -0x4(%rbp),%eax
  10204a:	48 98                	cltq
  10204c:	0f b6 44 05 e4       	movzbl -0x1c(%rbp,%rax,1),%eax
  102051:	88 02                	mov    %al,(%rdx)
  102053:	8b 45 fc             	mov    -0x4(%rbp),%eax
  102056:	8d 14 00             	lea    (%rax,%rax,1),%edx
  102059:	8b 45 d4             	mov    -0x2c(%rbp),%eax
  10205c:	01 d0                	add    %edx,%eax
  10205e:	48 98                	cltq
  102060:	48 8d 50 01          	lea    0x1(%rax),%rdx
  102064:	48 8b 45 f0          	mov    -0x10(%rbp),%rax
  102068:	48 01 c2             	add    %rax,%rdx
  10206b:	0f b6 45 d8          	movzbl -0x28(%rbp),%eax
  10206f:	88 02                	mov    %al,(%rdx)
  102071:	83 45 fc 01          	addl   $0x1,-0x4(%rbp)
  102075:	8b 45 fc             	mov    -0x4(%rbp),%eax
  102078:	48 98                	cltq
  10207a:	0f b6 44 05 e4       	movzbl -0x1c(%rbp,%rax,1),%eax
  10207f:	84 c0                	test   %al,%al
  102081:	75 af                	jne    102032 <kprintci_vidmem+0x35>
  102083:	90                   	nop
  102084:	90                   	nop
  102085:	c9                   	leave
  102086:	c3                   	ret

0000000000102087 <kprint_hex_w>:
  102087:	55                   	push   %rbp
  102088:	48 89 e5             	mov    %rsp,%rbp
  10208b:	48 83 ec 20          	sub    $0x20,%rsp
  10208f:	89 7d ec             	mov    %edi,-0x14(%rbp)
  102092:	c6 45 f6 00          	movb   $0x0,-0xa(%rbp)
  102096:	c7 45 fc 03 00 00 00 	movl   $0x3,-0x4(%rbp)
  10209d:	eb 3d                	jmp    1020dc <kprint_hex_w+0x55>
  10209f:	8b 45 ec             	mov    -0x14(%rbp),%eax
  1020a2:	83 e0 0f             	and    $0xf,%eax
  1020a5:	88 45 f7             	mov    %al,-0x9(%rbp)
  1020a8:	80 7d f7 09          	cmpb   $0x9,-0x9(%rbp)
  1020ac:	77 14                	ja     1020c2 <kprint_hex_w+0x3b>
  1020ae:	0f b6 45 f7          	movzbl -0x9(%rbp),%eax
  1020b2:	83 c0 30             	add    $0x30,%eax
  1020b5:	89 c2                	mov    %eax,%edx
  1020b7:	8b 45 fc             	mov    -0x4(%rbp),%eax
  1020ba:	48 98                	cltq
  1020bc:	88 54 05 f2          	mov    %dl,-0xe(%rbp,%rax,1)
  1020c0:	eb 12                	jmp    1020d4 <kprint_hex_w+0x4d>
  1020c2:	0f b6 45 f7          	movzbl -0x9(%rbp),%eax
  1020c6:	83 c0 37             	add    $0x37,%eax
  1020c9:	89 c2                	mov    %eax,%edx
  1020cb:	8b 45 fc             	mov    -0x4(%rbp),%eax
  1020ce:	48 98                	cltq
  1020d0:	88 54 05 f2          	mov    %dl,-0xe(%rbp,%rax,1)
  1020d4:	c1 6d ec 04          	shrl   $0x4,-0x14(%rbp)
  1020d8:	83 6d fc 01          	subl   $0x1,-0x4(%rbp)
  1020dc:	83 7d fc 00          	cmpl   $0x0,-0x4(%rbp)
  1020e0:	79 bd                	jns    10209f <kprint_hex_w+0x18>
  1020e2:	c7 45 f8 00 00 00 00 	movl   $0x0,-0x8(%rbp)
  1020e9:	eb 34                	jmp    10211f <kprint_hex_w+0x98>
  1020eb:	8b 45 f8             	mov    -0x8(%rbp),%eax
  1020ee:	48 98                	cltq
  1020f0:	0f b6 44 05 f2       	movzbl -0xe(%rbp,%rax,1),%eax
  1020f5:	0f b6 c0             	movzbl %al,%eax
  1020f8:	be 07 00 00 00       	mov    $0x7,%esi
  1020fd:	89 c7                	mov    %eax,%edi
  1020ff:	e8 b2 f6 ff ff       	call   1017b6 <putchar>
  102104:	b8 00 00 00 00       	mov    $0x0,%eax
  102109:	e8 f8 f9 ff ff       	call   101b06 <get_cursor>
  10210e:	83 c0 02             	add    $0x2,%eax
  102111:	0f b7 c0             	movzwl %ax,%eax
  102114:	89 c7                	mov    %eax,%edi
  102116:	e8 3e fa ff ff       	call   101b59 <set_cursor>
  10211b:	83 45 f8 01          	addl   $0x1,-0x8(%rbp)
  10211f:	83 7d f8 03          	cmpl   $0x3,-0x8(%rbp)
  102123:	7e c6                	jle    1020eb <kprint_hex_w+0x64>
  102125:	90                   	nop
  102126:	90                   	nop
  102127:	c9                   	leave
  102128:	c3                   	ret
  102129:	55                   	push   %rbp
  10212a:	48 89 e5             	mov    %rsp,%rbp
  10212d:	48 81 ec 90 02 00 00 	sub    $0x290,%rsp
  102134:	48 89 bd 78 fd ff ff 	mov    %rdi,-0x288(%rbp)
  10213b:	48 89 b5 58 ff ff ff 	mov    %rsi,-0xa8(%rbp)
  102142:	48 89 95 60 ff ff ff 	mov    %rdx,-0xa0(%rbp)
  102149:	48 89 8d 68 ff ff ff 	mov    %rcx,-0x98(%rbp)
  102150:	4c 89 85 70 ff ff ff 	mov    %r8,-0x90(%rbp)
  102157:	4c 89 8d 78 ff ff ff 	mov    %r9,-0x88(%rbp)
  10215e:	84 c0                	test   %al,%al
  102160:	74 20                	je     102182 <kprint_hex_w+0xfb>
  102162:	0f 29 45 80          	movaps %xmm0,-0x80(%rbp)
  102166:	0f 29 4d 90          	movaps %xmm1,-0x70(%rbp)
  10216a:	0f 29 55 a0          	movaps %xmm2,-0x60(%rbp)
  10216e:	0f 29 5d b0          	movaps %xmm3,-0x50(%rbp)
  102172:	0f 29 65 c0          	movaps %xmm4,-0x40(%rbp)
  102176:	0f 29 6d d0          	movaps %xmm5,-0x30(%rbp)
  10217a:	0f 29 75 e0          	movaps %xmm6,-0x20(%rbp)
  10217e:	0f 29 7d f0          	movaps %xmm7,-0x10(%rbp)
  102182:	c7 85 a0 fe ff ff 08 	movl   $0x8,-0x160(%rbp)
  102189:	00 00 00 
  10218c:	c7 85 a4 fe ff ff 30 	movl   $0x30,-0x15c(%rbp)
  102193:	00 00 00 
  102196:	48 8d 45 10          	lea    0x10(%rbp),%rax
  10219a:	48 89 85 a8 fe ff ff 	mov    %rax,-0x158(%rbp)
  1021a1:	48 8d 85 50 ff ff ff 	lea    -0xb0(%rbp),%rax
  1021a8:	48 89 85 b0 fe ff ff 	mov    %rax,-0x150(%rbp)
  1021af:	c7 85 4c ff ff ff 00 	movl   $0x0,-0xb4(%rbp)
  1021b6:	00 00 00 
  1021b9:	48 8b 85 78 fd ff ff 	mov    -0x288(%rbp),%rax
  1021c0:	48 89 85 40 ff ff ff 	mov    %rax,-0xc0(%rbp)
  1021c7:	e9 8a 0b 00 00       	jmp    102d56 <kprint_hex_w+0xccf>
  1021cc:	48 8b 85 40 ff ff ff 	mov    -0xc0(%rbp),%rax
  1021d3:	0f b6 00             	movzbl (%rax),%eax
  1021d6:	3c 25                	cmp    $0x25,%al
  1021d8:	74 33                	je     10220d <kprint_hex_w+0x186>
  1021da:	48 8b 85 40 ff ff ff 	mov    -0xc0(%rbp),%rax
  1021e1:	48 8d 50 01          	lea    0x1(%rax),%rdx
  1021e5:	48 89 95 40 ff ff ff 	mov    %rdx,-0xc0(%rbp)
  1021ec:	8b 95 4c ff ff ff    	mov    -0xb4(%rbp),%edx
  1021f2:	8d 4a 01             	lea    0x1(%rdx),%ecx
  1021f5:	89 8d 4c ff ff ff    	mov    %ecx,-0xb4(%rbp)
  1021fb:	0f b6 08             	movzbl (%rax),%ecx
  1021fe:	48 63 c2             	movslq %edx,%rax
  102201:	88 8c 05 a0 fd ff ff 	mov    %cl,-0x260(%rbp,%rax,1)
  102208:	e9 49 0b 00 00       	jmp    102d56 <kprint_hex_w+0xccf>
  10220d:	48 83 85 40 ff ff ff 	addq   $0x1,-0xc0(%rbp)
  102214:	01 
  102215:	c7 85 3c ff ff ff 00 	movl   $0x0,-0xc4(%rbp)
  10221c:	00 00 00 
  10221f:	c7 85 38 ff ff ff 00 	movl   $0x0,-0xc8(%rbp)
  102226:	00 00 00 
  102229:	48 8b 85 40 ff ff ff 	mov    -0xc0(%rbp),%rax
  102230:	0f b6 00             	movzbl (%rax),%eax
  102233:	3c 30                	cmp    $0x30,%al
  102235:	75 48                	jne    10227f <kprint_hex_w+0x1f8>
  102237:	c7 85 38 ff ff ff 01 	movl   $0x1,-0xc8(%rbp)
  10223e:	00 00 00 
  102241:	48 83 85 40 ff ff ff 	addq   $0x1,-0xc0(%rbp)
  102248:	01 
  102249:	eb 34                	jmp    10227f <kprint_hex_w+0x1f8>
  10224b:	8b 95 3c ff ff ff    	mov    -0xc4(%rbp),%edx
  102251:	89 d0                	mov    %edx,%eax
  102253:	c1 e0 02             	shl    $0x2,%eax
  102256:	01 d0                	add    %edx,%eax
  102258:	01 c0                	add    %eax,%eax
  10225a:	89 c1                	mov    %eax,%ecx
  10225c:	48 8b 85 40 ff ff ff 	mov    -0xc0(%rbp),%rax
  102263:	48 8d 50 01          	lea    0x1(%rax),%rdx
  102267:	48 89 95 40 ff ff ff 	mov    %rdx,-0xc0(%rbp)
  10226e:	0f b6 00             	movzbl (%rax),%eax
  102271:	0f be c0             	movsbl %al,%eax
  102274:	83 e8 30             	sub    $0x30,%eax
  102277:	01 c8                	add    %ecx,%eax
  102279:	89 85 3c ff ff ff    	mov    %eax,-0xc4(%rbp)
  10227f:	48 8b 85 40 ff ff ff 	mov    -0xc0(%rbp),%rax
  102286:	0f b6 00             	movzbl (%rax),%eax
  102289:	3c 2f                	cmp    $0x2f,%al
  10228b:	7e 0e                	jle    10229b <kprint_hex_w+0x214>
  10228d:	48 8b 85 40 ff ff ff 	mov    -0xc0(%rbp),%rax
  102294:	0f b6 00             	movzbl (%rax),%eax
  102297:	3c 39                	cmp    $0x39,%al
  102299:	7e b0                	jle    10224b <kprint_hex_w+0x1c4>
  10229b:	c7 85 34 ff ff ff 00 	movl   $0x0,-0xcc(%rbp)
  1022a2:	00 00 00 
  1022a5:	c7 85 30 ff ff ff 00 	movl   $0x0,-0xd0(%rbp)
  1022ac:	00 00 00 
  1022af:	48 8b 85 40 ff ff ff 	mov    -0xc0(%rbp),%rax
  1022b6:	0f b6 00             	movzbl (%rax),%eax
  1022b9:	3c 6c                	cmp    $0x6c,%al
  1022bb:	75 26                	jne    1022e3 <kprint_hex_w+0x25c>
  1022bd:	48 8b 85 40 ff ff ff 	mov    -0xc0(%rbp),%rax
  1022c4:	48 83 c0 01          	add    $0x1,%rax
  1022c8:	0f b6 00             	movzbl (%rax),%eax
  1022cb:	3c 6c                	cmp    $0x6c,%al
  1022cd:	75 14                	jne    1022e3 <kprint_hex_w+0x25c>
  1022cf:	c7 85 34 ff ff ff 01 	movl   $0x1,-0xcc(%rbp)
  1022d6:	00 00 00 
  1022d9:	48 83 85 40 ff ff ff 	addq   $0x2,-0xc0(%rbp)
  1022e0:	02 
  1022e1:	eb 20                	jmp    102303 <kprint_hex_w+0x27c>
  1022e3:	48 8b 85 40 ff ff ff 	mov    -0xc0(%rbp),%rax
  1022ea:	0f b6 00             	movzbl (%rax),%eax
  1022ed:	3c 6c                	cmp    $0x6c,%al
  1022ef:	75 12                	jne    102303 <kprint_hex_w+0x27c>
  1022f1:	c7 85 30 ff ff ff 01 	movl   $0x1,-0xd0(%rbp)
  1022f8:	00 00 00 
  1022fb:	48 83 85 40 ff ff ff 	addq   $0x1,-0xc0(%rbp)
  102302:	01 
  102303:	48 8b 85 40 ff ff ff 	mov    -0xc0(%rbp),%rax
  10230a:	0f b6 00             	movzbl (%rax),%eax
  10230d:	0f be c0             	movsbl %al,%eax
  102310:	83 f8 78             	cmp    $0x78,%eax
  102313:	0f 84 4d 03 00 00    	je     102666 <kprint_hex_w+0x5df>
  102319:	83 f8 78             	cmp    $0x78,%eax
  10231c:	0f 8f f0 09 00 00    	jg     102d12 <kprint_hex_w+0xc8b>
  102322:	83 f8 75             	cmp    $0x75,%eax
  102325:	0f 84 fc 01 00 00    	je     102527 <kprint_hex_w+0x4a0>
  10232b:	83 f8 75             	cmp    $0x75,%eax
  10232e:	0f 8f de 09 00 00    	jg     102d12 <kprint_hex_w+0xc8b>
  102334:	83 f8 73             	cmp    $0x73,%eax
  102337:	0f 84 af 08 00 00    	je     102bec <kprint_hex_w+0xb65>
  10233d:	83 f8 73             	cmp    $0x73,%eax
  102340:	0f 8f cc 09 00 00    	jg     102d12 <kprint_hex_w+0xc8b>
  102346:	83 f8 70             	cmp    $0x70,%eax
  102349:	0f 84 0d 07 00 00    	je     102a5c <kprint_hex_w+0x9d5>
  10234f:	83 f8 70             	cmp    $0x70,%eax
  102352:	0f 8f ba 09 00 00    	jg     102d12 <kprint_hex_w+0xc8b>
  102358:	83 f8 64             	cmp    $0x64,%eax
  10235b:	74 32                	je     10238f <kprint_hex_w+0x308>
  10235d:	83 f8 64             	cmp    $0x64,%eax
  102360:	0f 8f ac 09 00 00    	jg     102d12 <kprint_hex_w+0xc8b>
  102366:	83 f8 63             	cmp    $0x63,%eax
  102369:	0f 84 11 08 00 00    	je     102b80 <kprint_hex_w+0xaf9>
  10236f:	83 f8 63             	cmp    $0x63,%eax
  102372:	0f 8f 9a 09 00 00    	jg     102d12 <kprint_hex_w+0xc8b>
  102378:	83 f8 25             	cmp    $0x25,%eax
  10237b:	0f 84 76 09 00 00    	je     102cf7 <kprint_hex_w+0xc70>
  102381:	83 f8 58             	cmp    $0x58,%eax
  102384:	0f 84 dc 02 00 00    	je     102666 <kprint_hex_w+0x5df>
  10238a:	e9 83 09 00 00       	jmp    102d12 <kprint_hex_w+0xc8b>
  10238f:	8b 85 a0 fe ff ff    	mov    -0x160(%rbp),%eax
  102395:	83 f8 2f             	cmp    $0x2f,%eax
  102398:	77 23                	ja     1023bd <kprint_hex_w+0x336>
  10239a:	48 8b 85 b0 fe ff ff 	mov    -0x150(%rbp),%rax
  1023a1:	8b 95 a0 fe ff ff    	mov    -0x160(%rbp),%edx
  1023a7:	89 d2                	mov    %edx,%edx
  1023a9:	48 01 d0             	add    %rdx,%rax
  1023ac:	8b 95 a0 fe ff ff    	mov    -0x160(%rbp),%edx
  1023b2:	83 c2 08             	add    $0x8,%edx
  1023b5:	89 95 a0 fe ff ff    	mov    %edx,-0x160(%rbp)
  1023bb:	eb 12                	jmp    1023cf <kprint_hex_w+0x348>
  1023bd:	48 8b 85 a8 fe ff ff 	mov    -0x158(%rbp),%rax
  1023c4:	48 8d 50 08          	lea    0x8(%rax),%rdx
  1023c8:	48 89 95 a8 fe ff ff 	mov    %rdx,-0x158(%rbp)
  1023cf:	8b 00                	mov    (%rax),%eax
  1023d1:	89 85 d0 fe ff ff    	mov    %eax,-0x130(%rbp)
  1023d7:	8b 85 d0 fe ff ff    	mov    -0x130(%rbp),%eax
  1023dd:	c1 e8 1f             	shr    $0x1f,%eax
  1023e0:	0f b6 c0             	movzbl %al,%eax
  1023e3:	89 85 cc fe ff ff    	mov    %eax,-0x134(%rbp)
  1023e9:	83 bd cc fe ff ff 00 	cmpl   $0x0,-0x134(%rbp)
  1023f0:	74 10                	je     102402 <kprint_hex_w+0x37b>
  1023f2:	8b 85 d0 fe ff ff    	mov    -0x130(%rbp),%eax
  1023f8:	f7 d8                	neg    %eax
  1023fa:	89 85 2c ff ff ff    	mov    %eax,-0xd4(%rbp)
  102400:	eb 0c                	jmp    10240e <kprint_hex_w+0x387>
  102402:	8b 85 d0 fe ff ff    	mov    -0x130(%rbp),%eax
  102408:	89 85 2c ff ff ff    	mov    %eax,-0xd4(%rbp)
  10240e:	c7 85 28 ff ff ff 00 	movl   $0x0,-0xd8(%rbp)
  102415:	00 00 00 
  102418:	8b 8d 2c ff ff ff    	mov    -0xd4(%rbp),%ecx
  10241e:	89 ca                	mov    %ecx,%edx
  102420:	b8 cd cc cc cc       	mov    $0xcccccccd,%eax
  102425:	48 0f af c2          	imul   %rdx,%rax
  102429:	48 c1 e8 20          	shr    $0x20,%rax
  10242d:	89 c2                	mov    %eax,%edx
  10242f:	c1 ea 03             	shr    $0x3,%edx
  102432:	89 d0                	mov    %edx,%eax
  102434:	c1 e0 02             	shl    $0x2,%eax
  102437:	01 d0                	add    %edx,%eax
  102439:	01 c0                	add    %eax,%eax
  10243b:	29 c1                	sub    %eax,%ecx
  10243d:	89 ca                	mov    %ecx,%edx
  10243f:	89 d0                	mov    %edx,%eax
  102441:	8d 48 30             	lea    0x30(%rax),%ecx
  102444:	8b 85 28 ff ff ff    	mov    -0xd8(%rbp),%eax
  10244a:	8d 50 01             	lea    0x1(%rax),%edx
  10244d:	89 95 28 ff ff ff    	mov    %edx,-0xd8(%rbp)
  102453:	89 ca                	mov    %ecx,%edx
  102455:	48 98                	cltq
  102457:	88 94 05 80 fd ff ff 	mov    %dl,-0x280(%rbp,%rax,1)
  10245e:	8b 85 2c ff ff ff    	mov    -0xd4(%rbp),%eax
  102464:	89 c2                	mov    %eax,%edx
  102466:	b8 cd cc cc cc       	mov    $0xcccccccd,%eax
  10246b:	48 0f af c2          	imul   %rdx,%rax
  10246f:	48 c1 e8 20          	shr    $0x20,%rax
  102473:	c1 e8 03             	shr    $0x3,%eax
  102476:	89 85 2c ff ff ff    	mov    %eax,-0xd4(%rbp)
  10247c:	83 bd 2c ff ff ff 00 	cmpl   $0x0,-0xd4(%rbp)
  102483:	75 93                	jne    102418 <kprint_hex_w+0x391>
  102485:	83 bd cc fe ff ff 00 	cmpl   $0x0,-0x134(%rbp)
  10248c:	74 48                	je     1024d6 <kprint_hex_w+0x44f>
  10248e:	8b 85 28 ff ff ff    	mov    -0xd8(%rbp),%eax
  102494:	8d 50 01             	lea    0x1(%rax),%edx
  102497:	89 95 28 ff ff ff    	mov    %edx,-0xd8(%rbp)
  10249d:	48 98                	cltq
  10249f:	c6 84 05 80 fd ff ff 	movb   $0x2d,-0x280(%rbp,%rax,1)
  1024a6:	2d 
  1024a7:	eb 2d                	jmp    1024d6 <kprint_hex_w+0x44f>
  1024a9:	83 bd 38 ff ff ff 00 	cmpl   $0x0,-0xc8(%rbp)
  1024b0:	74 07                	je     1024b9 <kprint_hex_w+0x432>
  1024b2:	b9 30 00 00 00       	mov    $0x30,%ecx
  1024b7:	eb 05                	jmp    1024be <kprint_hex_w+0x437>
  1024b9:	b9 20 00 00 00       	mov    $0x20,%ecx
  1024be:	8b 85 28 ff ff ff    	mov    -0xd8(%rbp),%eax
  1024c4:	8d 50 01             	lea    0x1(%rax),%edx
  1024c7:	89 95 28 ff ff ff    	mov    %edx,-0xd8(%rbp)
  1024cd:	48 98                	cltq
  1024cf:	88 8c 05 80 fd ff ff 	mov    %cl,-0x280(%rbp,%rax,1)
  1024d6:	8b 85 28 ff ff ff    	mov    -0xd8(%rbp),%eax
  1024dc:	3b 85 3c ff ff ff    	cmp    -0xc4(%rbp),%eax
  1024e2:	7c c5                	jl     1024a9 <kprint_hex_w+0x422>
  1024e4:	eb 29                	jmp    10250f <kprint_hex_w+0x488>
  1024e6:	8b 85 4c ff ff ff    	mov    -0xb4(%rbp),%eax
  1024ec:	8d 50 01             	lea    0x1(%rax),%edx
  1024ef:	89 95 4c ff ff ff    	mov    %edx,-0xb4(%rbp)
  1024f5:	8b 95 28 ff ff ff    	mov    -0xd8(%rbp),%edx
  1024fb:	48 63 d2             	movslq %edx,%rdx
  1024fe:	0f b6 94 15 80 fd ff 	movzbl -0x280(%rbp,%rdx,1),%edx
  102505:	ff 
  102506:	48 98                	cltq
  102508:	88 94 05 a0 fd ff ff 	mov    %dl,-0x260(%rbp,%rax,1)
  10250f:	8b 85 28 ff ff ff    	mov    -0xd8(%rbp),%eax
  102515:	8d 50 ff             	lea    -0x1(%rax),%edx
  102518:	89 95 28 ff ff ff    	mov    %edx,-0xd8(%rbp)
  10251e:	85 c0                	test   %eax,%eax
  102520:	75 c4                	jne    1024e6 <kprint_hex_w+0x45f>
  102522:	e9 27 08 00 00       	jmp    102d4e <kprint_hex_w+0xcc7>
  102527:	8b 85 a0 fe ff ff    	mov    -0x160(%rbp),%eax
  10252d:	83 f8 2f             	cmp    $0x2f,%eax
  102530:	77 23                	ja     102555 <kprint_hex_w+0x4ce>
  102532:	48 8b 85 b0 fe ff ff 	mov    -0x150(%rbp),%rax
  102539:	8b 95 a0 fe ff ff    	mov    -0x160(%rbp),%edx
  10253f:	89 d2                	mov    %edx,%edx
  102541:	48 01 d0             	add    %rdx,%rax
  102544:	8b 95 a0 fe ff ff    	mov    -0x160(%rbp),%edx
  10254a:	83 c2 08             	add    $0x8,%edx
  10254d:	89 95 a0 fe ff ff    	mov    %edx,-0x160(%rbp)
  102553:	eb 12                	jmp    102567 <kprint_hex_w+0x4e0>
  102555:	48 8b 85 a8 fe ff ff 	mov    -0x158(%rbp),%rax
  10255c:	48 8d 50 08          	lea    0x8(%rax),%rdx
  102560:	48 89 95 a8 fe ff ff 	mov    %rdx,-0x158(%rbp)
  102567:	8b 00                	mov    (%rax),%eax
  102569:	89 85 24 ff ff ff    	mov    %eax,-0xdc(%rbp)
  10256f:	c7 85 20 ff ff ff 00 	movl   $0x0,-0xe0(%rbp)
  102576:	00 00 00 
  102579:	8b 8d 24 ff ff ff    	mov    -0xdc(%rbp),%ecx
  10257f:	89 ca                	mov    %ecx,%edx
  102581:	b8 cd cc cc cc       	mov    $0xcccccccd,%eax
  102586:	48 0f af c2          	imul   %rdx,%rax
  10258a:	48 c1 e8 20          	shr    $0x20,%rax
  10258e:	89 c2                	mov    %eax,%edx
  102590:	c1 ea 03             	shr    $0x3,%edx
  102593:	89 d0                	mov    %edx,%eax
  102595:	c1 e0 02             	shl    $0x2,%eax
  102598:	01 d0                	add    %edx,%eax
  10259a:	01 c0                	add    %eax,%eax
  10259c:	29 c1                	sub    %eax,%ecx
  10259e:	89 ca                	mov    %ecx,%edx
  1025a0:	89 d0                	mov    %edx,%eax
  1025a2:	8d 48 30             	lea    0x30(%rax),%ecx
  1025a5:	8b 85 20 ff ff ff    	mov    -0xe0(%rbp),%eax
  1025ab:	8d 50 01             	lea    0x1(%rax),%edx
  1025ae:	89 95 20 ff ff ff    	mov    %edx,-0xe0(%rbp)
  1025b4:	89 ca                	mov    %ecx,%edx
  1025b6:	48 98                	cltq
  1025b8:	88 94 05 80 fd ff ff 	mov    %dl,-0x280(%rbp,%rax,1)
  1025bf:	8b 85 24 ff ff ff    	mov    -0xdc(%rbp),%eax
  1025c5:	89 c2                	mov    %eax,%edx
  1025c7:	b8 cd cc cc cc       	mov    $0xcccccccd,%eax
  1025cc:	48 0f af c2          	imul   %rdx,%rax
  1025d0:	48 c1 e8 20          	shr    $0x20,%rax
  1025d4:	c1 e8 03             	shr    $0x3,%eax
  1025d7:	89 85 24 ff ff ff    	mov    %eax,-0xdc(%rbp)
  1025dd:	83 bd 24 ff ff ff 00 	cmpl   $0x0,-0xdc(%rbp)
  1025e4:	75 93                	jne    102579 <kprint_hex_w+0x4f2>
  1025e6:	eb 2d                	jmp    102615 <kprint_hex_w+0x58e>
  1025e8:	83 bd 38 ff ff ff 00 	cmpl   $0x0,-0xc8(%rbp)
  1025ef:	74 07                	je     1025f8 <kprint_hex_w+0x571>
  1025f1:	b9 30 00 00 00       	mov    $0x30,%ecx
  1025f6:	eb 05                	jmp    1025fd <kprint_hex_w+0x576>
  1025f8:	b9 20 00 00 00       	mov    $0x20,%ecx
  1025fd:	8b 85 20 ff ff ff    	mov    -0xe0(%rbp),%eax
  102603:	8d 50 01             	lea    0x1(%rax),%edx
  102606:	89 95 20 ff ff ff    	mov    %edx,-0xe0(%rbp)
  10260c:	48 98                	cltq
  10260e:	88 8c 05 80 fd ff ff 	mov    %cl,-0x280(%rbp,%rax,1)
  102615:	8b 85 20 ff ff ff    	mov    -0xe0(%rbp),%eax
  10261b:	3b 85 3c ff ff ff    	cmp    -0xc4(%rbp),%eax
  102621:	7c c5                	jl     1025e8 <kprint_hex_w+0x561>
  102623:	eb 29                	jmp    10264e <kprint_hex_w+0x5c7>
  102625:	8b 85 4c ff ff ff    	mov    -0xb4(%rbp),%eax
  10262b:	8d 50 01             	lea    0x1(%rax),%edx
  10262e:	89 95 4c ff ff ff    	mov    %edx,-0xb4(%rbp)
  102634:	8b 95 20 ff ff ff    	mov    -0xe0(%rbp),%edx
  10263a:	48 63 d2             	movslq %edx,%rdx
  10263d:	0f b6 94 15 80 fd ff 	movzbl -0x280(%rbp,%rdx,1),%edx
  102644:	ff 
  102645:	48 98                	cltq
  102647:	88 94 05 a0 fd ff ff 	mov    %dl,-0x260(%rbp,%rax,1)
  10264e:	8b 85 20 ff ff ff    	mov    -0xe0(%rbp),%eax
  102654:	8d 50 ff             	lea    -0x1(%rax),%edx
  102657:	89 95 20 ff ff ff    	mov    %edx,-0xe0(%rbp)
  10265d:	85 c0                	test   %eax,%eax
  10265f:	75 c4                	jne    102625 <kprint_hex_w+0x59e>
  102661:	e9 e8 06 00 00       	jmp    102d4e <kprint_hex_w+0xcc7>
  102666:	83 bd 34 ff ff ff 00 	cmpl   $0x0,-0xcc(%rbp)
  10266d:	0f 84 4b 01 00 00    	je     1027be <kprint_hex_w+0x737>
  102673:	8b 85 a0 fe ff ff    	mov    -0x160(%rbp),%eax
  102679:	83 f8 2f             	cmp    $0x2f,%eax
  10267c:	77 23                	ja     1026a1 <kprint_hex_w+0x61a>
  10267e:	48 8b 85 b0 fe ff ff 	mov    -0x150(%rbp),%rax
  102685:	8b 95 a0 fe ff ff    	mov    -0x160(%rbp),%edx
  10268b:	89 d2                	mov    %edx,%edx
  10268d:	48 01 d0             	add    %rdx,%rax
  102690:	8b 95 a0 fe ff ff    	mov    -0x160(%rbp),%edx
  102696:	83 c2 08             	add    $0x8,%edx
  102699:	89 95 a0 fe ff ff    	mov    %edx,-0x160(%rbp)
  10269f:	eb 12                	jmp    1026b3 <kprint_hex_w+0x62c>
  1026a1:	48 8b 85 a8 fe ff ff 	mov    -0x158(%rbp),%rax
  1026a8:	48 8d 50 08          	lea    0x8(%rax),%rdx
  1026ac:	48 89 95 a8 fe ff ff 	mov    %rdx,-0x158(%rbp)
  1026b3:	48 8b 00             	mov    (%rax),%rax
  1026b6:	48 89 85 18 ff ff ff 	mov    %rax,-0xe8(%rbp)
  1026bd:	c7 85 14 ff ff ff 00 	movl   $0x0,-0xec(%rbp)
  1026c4:	00 00 00 
  1026c7:	48 8b 85 18 ff ff ff 	mov    -0xe8(%rbp),%rax
  1026ce:	83 e0 0f             	and    $0xf,%eax
  1026d1:	89 85 bc fe ff ff    	mov    %eax,-0x144(%rbp)
  1026d7:	83 bd bc fe ff ff 09 	cmpl   $0x9,-0x144(%rbp)
  1026de:	7f 0d                	jg     1026ed <kprint_hex_w+0x666>
  1026e0:	8b 85 bc fe ff ff    	mov    -0x144(%rbp),%eax
  1026e6:	83 c0 30             	add    $0x30,%eax
  1026e9:	89 c1                	mov    %eax,%ecx
  1026eb:	eb 27                	jmp    102714 <kprint_hex_w+0x68d>
  1026ed:	48 8b 85 40 ff ff ff 	mov    -0xc0(%rbp),%rax
  1026f4:	0f b6 00             	movzbl (%rax),%eax
  1026f7:	3c 78                	cmp    $0x78,%al
  1026f9:	75 07                	jne    102702 <kprint_hex_w+0x67b>
  1026fb:	ba 61 00 00 00       	mov    $0x61,%edx
  102700:	eb 05                	jmp    102707 <kprint_hex_w+0x680>
  102702:	ba 41 00 00 00       	mov    $0x41,%edx
  102707:	8b 85 bc fe ff ff    	mov    -0x144(%rbp),%eax
  10270d:	01 d0                	add    %edx,%eax
  10270f:	83 e8 0a             	sub    $0xa,%eax
  102712:	89 c1                	mov    %eax,%ecx
  102714:	8b 85 14 ff ff ff    	mov    -0xec(%rbp),%eax
  10271a:	8d 50 01             	lea    0x1(%rax),%edx
  10271d:	89 95 14 ff ff ff    	mov    %edx,-0xec(%rbp)
  102723:	48 98                	cltq
  102725:	88 8c 05 80 fd ff ff 	mov    %cl,-0x280(%rbp,%rax,1)
  10272c:	48 c1 ad 18 ff ff ff 	shrq   $0x4,-0xe8(%rbp)
  102733:	04 
  102734:	48 83 bd 18 ff ff ff 	cmpq   $0x0,-0xe8(%rbp)
  10273b:	00 
  10273c:	75 89                	jne    1026c7 <kprint_hex_w+0x640>
  10273e:	eb 2d                	jmp    10276d <kprint_hex_w+0x6e6>
  102740:	83 bd 38 ff ff ff 00 	cmpl   $0x0,-0xc8(%rbp)
  102747:	74 07                	je     102750 <kprint_hex_w+0x6c9>
  102749:	b9 30 00 00 00       	mov    $0x30,%ecx
  10274e:	eb 05                	jmp    102755 <kprint_hex_w+0x6ce>
  102750:	b9 20 00 00 00       	mov    $0x20,%ecx
  102755:	8b 85 14 ff ff ff    	mov    -0xec(%rbp),%eax
  10275b:	8d 50 01             	lea    0x1(%rax),%edx
  10275e:	89 95 14 ff ff ff    	mov    %edx,-0xec(%rbp)
  102764:	48 98                	cltq
  102766:	88 8c 05 80 fd ff ff 	mov    %cl,-0x280(%rbp,%rax,1)
  10276d:	8b 85 14 ff ff ff    	mov    -0xec(%rbp),%eax
  102773:	3b 85 3c ff ff ff    	cmp    -0xc4(%rbp),%eax
  102779:	7c c5                	jl     102740 <kprint_hex_w+0x6b9>
  10277b:	eb 29                	jmp    1027a6 <kprint_hex_w+0x71f>
  10277d:	8b 85 4c ff ff ff    	mov    -0xb4(%rbp),%eax
  102783:	8d 50 01             	lea    0x1(%rax),%edx
  102786:	89 95 4c ff ff ff    	mov    %edx,-0xb4(%rbp)
  10278c:	8b 95 14 ff ff ff    	mov    -0xec(%rbp),%edx
  102792:	48 63 d2             	movslq %edx,%rdx
  102795:	0f b6 94 15 80 fd ff 	movzbl -0x280(%rbp,%rdx,1),%edx
  10279c:	ff 
  10279d:	48 98                	cltq
  10279f:	88 94 05 a0 fd ff ff 	mov    %dl,-0x260(%rbp,%rax,1)
  1027a6:	8b 85 14 ff ff ff    	mov    -0xec(%rbp),%eax
  1027ac:	8d 50 ff             	lea    -0x1(%rax),%edx
  1027af:	89 95 14 ff ff ff    	mov    %edx,-0xec(%rbp)
  1027b5:	85 c0                	test   %eax,%eax
  1027b7:	75 c4                	jne    10277d <kprint_hex_w+0x6f6>
  1027b9:	e9 90 05 00 00       	jmp    102d4e <kprint_hex_w+0xcc7>
  1027be:	83 bd 30 ff ff ff 00 	cmpl   $0x0,-0xd0(%rbp)
  1027c5:	0f 84 4b 01 00 00    	je     102916 <kprint_hex_w+0x88f>
  1027cb:	8b 85 a0 fe ff ff    	mov    -0x160(%rbp),%eax
  1027d1:	83 f8 2f             	cmp    $0x2f,%eax
  1027d4:	77 23                	ja     1027f9 <kprint_hex_w+0x772>
  1027d6:	48 8b 85 b0 fe ff ff 	mov    -0x150(%rbp),%rax
  1027dd:	8b 95 a0 fe ff ff    	mov    -0x160(%rbp),%edx
  1027e3:	89 d2                	mov    %edx,%edx
  1027e5:	48 01 d0             	add    %rdx,%rax
  1027e8:	8b 95 a0 fe ff ff    	mov    -0x160(%rbp),%edx
  1027ee:	83 c2 08             	add    $0x8,%edx
  1027f1:	89 95 a0 fe ff ff    	mov    %edx,-0x160(%rbp)
  1027f7:	eb 12                	jmp    10280b <kprint_hex_w+0x784>
  1027f9:	48 8b 85 a8 fe ff ff 	mov    -0x158(%rbp),%rax
  102800:	48 8d 50 08          	lea    0x8(%rax),%rdx
  102804:	48 89 95 a8 fe ff ff 	mov    %rdx,-0x158(%rbp)
  10280b:	48 8b 00             	mov    (%rax),%rax
  10280e:	48 89 85 08 ff ff ff 	mov    %rax,-0xf8(%rbp)
  102815:	c7 85 04 ff ff ff 00 	movl   $0x0,-0xfc(%rbp)
  10281c:	00 00 00 
  10281f:	48 8b 85 08 ff ff ff 	mov    -0xf8(%rbp),%rax
  102826:	83 e0 0f             	and    $0xf,%eax
  102829:	89 85 c0 fe ff ff    	mov    %eax,-0x140(%rbp)
  10282f:	83 bd c0 fe ff ff 09 	cmpl   $0x9,-0x140(%rbp)
  102836:	7f 0d                	jg     102845 <kprint_hex_w+0x7be>
  102838:	8b 85 c0 fe ff ff    	mov    -0x140(%rbp),%eax
  10283e:	83 c0 30             	add    $0x30,%eax
  102841:	89 c1                	mov    %eax,%ecx
  102843:	eb 27                	jmp    10286c <kprint_hex_w+0x7e5>
  102845:	48 8b 85 40 ff ff ff 	mov    -0xc0(%rbp),%rax
  10284c:	0f b6 00             	movzbl (%rax),%eax
  10284f:	3c 78                	cmp    $0x78,%al
  102851:	75 07                	jne    10285a <kprint_hex_w+0x7d3>
  102853:	ba 61 00 00 00       	mov    $0x61,%edx
  102858:	eb 05                	jmp    10285f <kprint_hex_w+0x7d8>
  10285a:	ba 41 00 00 00       	mov    $0x41,%edx
  10285f:	8b 85 c0 fe ff ff    	mov    -0x140(%rbp),%eax
  102865:	01 d0                	add    %edx,%eax
  102867:	83 e8 0a             	sub    $0xa,%eax
  10286a:	89 c1                	mov    %eax,%ecx
  10286c:	8b 85 04 ff ff ff    	mov    -0xfc(%rbp),%eax
  102872:	8d 50 01             	lea    0x1(%rax),%edx
  102875:	89 95 04 ff ff ff    	mov    %edx,-0xfc(%rbp)
  10287b:	48 98                	cltq
  10287d:	88 8c 05 80 fd ff ff 	mov    %cl,-0x280(%rbp,%rax,1)
  102884:	48 c1 ad 08 ff ff ff 	shrq   $0x4,-0xf8(%rbp)
  10288b:	04 
  10288c:	48 83 bd 08 ff ff ff 	cmpq   $0x0,-0xf8(%rbp)
  102893:	00 
  102894:	75 89                	jne    10281f <kprint_hex_w+0x798>
  102896:	eb 2d                	jmp    1028c5 <kprint_hex_w+0x83e>
  102898:	83 bd 38 ff ff ff 00 	cmpl   $0x0,-0xc8(%rbp)
  10289f:	74 07                	je     1028a8 <kprint_hex_w+0x821>
  1028a1:	b9 30 00 00 00       	mov    $0x30,%ecx
  1028a6:	eb 05                	jmp    1028ad <kprint_hex_w+0x826>
  1028a8:	b9 20 00 00 00       	mov    $0x20,%ecx
  1028ad:	8b 85 04 ff ff ff    	mov    -0xfc(%rbp),%eax
  1028b3:	8d 50 01             	lea    0x1(%rax),%edx
  1028b6:	89 95 04 ff ff ff    	mov    %edx,-0xfc(%rbp)
  1028bc:	48 98                	cltq
  1028be:	88 8c 05 80 fd ff ff 	mov    %cl,-0x280(%rbp,%rax,1)
  1028c5:	8b 85 04 ff ff ff    	mov    -0xfc(%rbp),%eax
  1028cb:	3b 85 3c ff ff ff    	cmp    -0xc4(%rbp),%eax
  1028d1:	7c c5                	jl     102898 <kprint_hex_w+0x811>
  1028d3:	eb 29                	jmp    1028fe <kprint_hex_w+0x877>
  1028d5:	8b 85 4c ff ff ff    	mov    -0xb4(%rbp),%eax
  1028db:	8d 50 01             	lea    0x1(%rax),%edx
  1028de:	89 95 4c ff ff ff    	mov    %edx,-0xb4(%rbp)
  1028e4:	8b 95 04 ff ff ff    	mov    -0xfc(%rbp),%edx
  1028ea:	48 63 d2             	movslq %edx,%rdx
  1028ed:	0f b6 94 15 80 fd ff 	movzbl -0x280(%rbp,%rdx,1),%edx
  1028f4:	ff 
  1028f5:	48 98                	cltq
  1028f7:	88 94 05 a0 fd ff ff 	mov    %dl,-0x260(%rbp,%rax,1)
  1028fe:	8b 85 04 ff ff ff    	mov    -0xfc(%rbp),%eax
  102904:	8d 50 ff             	lea    -0x1(%rax),%edx
  102907:	89 95 04 ff ff ff    	mov    %edx,-0xfc(%rbp)
  10290d:	85 c0                	test   %eax,%eax
  10290f:	75 c4                	jne    1028d5 <kprint_hex_w+0x84e>
  102911:	e9 38 04 00 00       	jmp    102d4e <kprint_hex_w+0xcc7>
  102916:	8b 85 a0 fe ff ff    	mov    -0x160(%rbp),%eax
  10291c:	83 f8 2f             	cmp    $0x2f,%eax
  10291f:	77 23                	ja     102944 <kprint_hex_w+0x8bd>
  102921:	48 8b 85 b0 fe ff ff 	mov    -0x150(%rbp),%rax
  102928:	8b 95 a0 fe ff ff    	mov    -0x160(%rbp),%edx
  10292e:	89 d2                	mov    %edx,%edx
  102930:	48 01 d0             	add    %rdx,%rax
  102933:	8b 95 a0 fe ff ff    	mov    -0x160(%rbp),%edx
  102939:	83 c2 08             	add    $0x8,%edx
  10293c:	89 95 a0 fe ff ff    	mov    %edx,-0x160(%rbp)
  102942:	eb 12                	jmp    102956 <kprint_hex_w+0x8cf>
  102944:	48 8b 85 a8 fe ff ff 	mov    -0x158(%rbp),%rax
  10294b:	48 8d 50 08          	lea    0x8(%rax),%rdx
  10294f:	48 89 95 a8 fe ff ff 	mov    %rdx,-0x158(%rbp)
  102956:	8b 00                	mov    (%rax),%eax
  102958:	89 85 00 ff ff ff    	mov    %eax,-0x100(%rbp)
  10295e:	c7 85 fc fe ff ff 00 	movl   $0x0,-0x104(%rbp)
  102965:	00 00 00 
  102968:	8b 85 00 ff ff ff    	mov    -0x100(%rbp),%eax
  10296e:	83 e0 0f             	and    $0xf,%eax
  102971:	89 85 c4 fe ff ff    	mov    %eax,-0x13c(%rbp)
  102977:	83 bd c4 fe ff ff 09 	cmpl   $0x9,-0x13c(%rbp)
  10297e:	7f 0d                	jg     10298d <kprint_hex_w+0x906>
  102980:	8b 85 c4 fe ff ff    	mov    -0x13c(%rbp),%eax
  102986:	83 c0 30             	add    $0x30,%eax
  102989:	89 c1                	mov    %eax,%ecx
  10298b:	eb 27                	jmp    1029b4 <kprint_hex_w+0x92d>
  10298d:	48 8b 85 40 ff ff ff 	mov    -0xc0(%rbp),%rax
  102994:	0f b6 00             	movzbl (%rax),%eax
  102997:	3c 78                	cmp    $0x78,%al
  102999:	75 07                	jne    1029a2 <kprint_hex_w+0x91b>
  10299b:	ba 61 00 00 00       	mov    $0x61,%edx
  1029a0:	eb 05                	jmp    1029a7 <kprint_hex_w+0x920>
  1029a2:	ba 41 00 00 00       	mov    $0x41,%edx
  1029a7:	8b 85 c4 fe ff ff    	mov    -0x13c(%rbp),%eax
  1029ad:	01 d0                	add    %edx,%eax
  1029af:	83 e8 0a             	sub    $0xa,%eax
  1029b2:	89 c1                	mov    %eax,%ecx
  1029b4:	8b 85 fc fe ff ff    	mov    -0x104(%rbp),%eax
  1029ba:	8d 50 01             	lea    0x1(%rax),%edx
  1029bd:	89 95 fc fe ff ff    	mov    %edx,-0x104(%rbp)
  1029c3:	48 98                	cltq
  1029c5:	88 8c 05 80 fd ff ff 	mov    %cl,-0x280(%rbp,%rax,1)
  1029cc:	c1 ad 00 ff ff ff 04 	shrl   $0x4,-0x100(%rbp)
  1029d3:	83 bd 00 ff ff ff 00 	cmpl   $0x0,-0x100(%rbp)
  1029da:	75 8c                	jne    102968 <kprint_hex_w+0x8e1>
  1029dc:	eb 2d                	jmp    102a0b <kprint_hex_w+0x984>
  1029de:	83 bd 38 ff ff ff 00 	cmpl   $0x0,-0xc8(%rbp)
  1029e5:	74 07                	je     1029ee <kprint_hex_w+0x967>
  1029e7:	b9 30 00 00 00       	mov    $0x30,%ecx
  1029ec:	eb 05                	jmp    1029f3 <kprint_hex_w+0x96c>
  1029ee:	b9 20 00 00 00       	mov    $0x20,%ecx
  1029f3:	8b 85 fc fe ff ff    	mov    -0x104(%rbp),%eax
  1029f9:	8d 50 01             	lea    0x1(%rax),%edx
  1029fc:	89 95 fc fe ff ff    	mov    %edx,-0x104(%rbp)
  102a02:	48 98                	cltq
  102a04:	88 8c 05 80 fd ff ff 	mov    %cl,-0x280(%rbp,%rax,1)
  102a0b:	8b 85 fc fe ff ff    	mov    -0x104(%rbp),%eax
  102a11:	3b 85 3c ff ff ff    	cmp    -0xc4(%rbp),%eax
  102a17:	7c c5                	jl     1029de <kprint_hex_w+0x957>
  102a19:	eb 29                	jmp    102a44 <kprint_hex_w+0x9bd>
  102a1b:	8b 85 4c ff ff ff    	mov    -0xb4(%rbp),%eax
  102a21:	8d 50 01             	lea    0x1(%rax),%edx
  102a24:	89 95 4c ff ff ff    	mov    %edx,-0xb4(%rbp)
  102a2a:	8b 95 fc fe ff ff    	mov    -0x104(%rbp),%edx
  102a30:	48 63 d2             	movslq %edx,%rdx
  102a33:	0f b6 94 15 80 fd ff 	movzbl -0x280(%rbp,%rdx,1),%edx
  102a3a:	ff 
  102a3b:	48 98                	cltq
  102a3d:	88 94 05 a0 fd ff ff 	mov    %dl,-0x260(%rbp,%rax,1)
  102a44:	8b 85 fc fe ff ff    	mov    -0x104(%rbp),%eax
  102a4a:	8d 50 ff             	lea    -0x1(%rax),%edx
  102a4d:	89 95 fc fe ff ff    	mov    %edx,-0x104(%rbp)
  102a53:	85 c0                	test   %eax,%eax
  102a55:	75 c4                	jne    102a1b <kprint_hex_w+0x994>
  102a57:	e9 f2 02 00 00       	jmp    102d4e <kprint_hex_w+0xcc7>
  102a5c:	8b 85 a0 fe ff ff    	mov    -0x160(%rbp),%eax
  102a62:	83 f8 2f             	cmp    $0x2f,%eax
  102a65:	77 23                	ja     102a8a <kprint_hex_w+0xa03>
  102a67:	48 8b 85 b0 fe ff ff 	mov    -0x150(%rbp),%rax
  102a6e:	8b 95 a0 fe ff ff    	mov    -0x160(%rbp),%edx
  102a74:	89 d2                	mov    %edx,%edx
  102a76:	48 01 d0             	add    %rdx,%rax
  102a79:	8b 95 a0 fe ff ff    	mov    -0x160(%rbp),%edx
  102a7f:	83 c2 08             	add    $0x8,%edx
  102a82:	89 95 a0 fe ff ff    	mov    %edx,-0x160(%rbp)
  102a88:	eb 12                	jmp    102a9c <kprint_hex_w+0xa15>
  102a8a:	48 8b 85 a8 fe ff ff 	mov    -0x158(%rbp),%rax
  102a91:	48 8d 50 08          	lea    0x8(%rax),%rdx
  102a95:	48 89 95 a8 fe ff ff 	mov    %rdx,-0x158(%rbp)
  102a9c:	48 8b 00             	mov    (%rax),%rax
  102a9f:	48 89 85 f0 fe ff ff 	mov    %rax,-0x110(%rbp)
  102aa6:	8b 85 4c ff ff ff    	mov    -0xb4(%rbp),%eax
  102aac:	8d 50 01             	lea    0x1(%rax),%edx
  102aaf:	89 95 4c ff ff ff    	mov    %edx,-0xb4(%rbp)
  102ab5:	48 98                	cltq
  102ab7:	c6 84 05 a0 fd ff ff 	movb   $0x30,-0x260(%rbp,%rax,1)
  102abe:	30 
  102abf:	8b 85 4c ff ff ff    	mov    -0xb4(%rbp),%eax
  102ac5:	8d 50 01             	lea    0x1(%rax),%edx
  102ac8:	89 95 4c ff ff ff    	mov    %edx,-0xb4(%rbp)
  102ace:	48 98                	cltq
  102ad0:	c6 84 05 a0 fd ff ff 	movb   $0x78,-0x260(%rbp,%rax,1)
  102ad7:	78 
  102ad8:	c7 85 ec fe ff ff 00 	movl   $0x0,-0x114(%rbp)
  102adf:	00 00 00 
  102ae2:	48 8b 85 f0 fe ff ff 	mov    -0x110(%rbp),%rax
  102ae9:	83 e0 0f             	and    $0xf,%eax
  102aec:	89 85 d4 fe ff ff    	mov    %eax,-0x12c(%rbp)
  102af2:	83 bd d4 fe ff ff 09 	cmpl   $0x9,-0x12c(%rbp)
  102af9:	7f 0d                	jg     102b08 <kprint_hex_w+0xa81>
  102afb:	8b 85 d4 fe ff ff    	mov    -0x12c(%rbp),%eax
  102b01:	83 c0 30             	add    $0x30,%eax
  102b04:	89 c1                	mov    %eax,%ecx
  102b06:	eb 0b                	jmp    102b13 <kprint_hex_w+0xa8c>
  102b08:	8b 85 d4 fe ff ff    	mov    -0x12c(%rbp),%eax
  102b0e:	83 c0 57             	add    $0x57,%eax
  102b11:	89 c1                	mov    %eax,%ecx
  102b13:	8b 85 ec fe ff ff    	mov    -0x114(%rbp),%eax
  102b19:	8d 50 01             	lea    0x1(%rax),%edx
  102b1c:	89 95 ec fe ff ff    	mov    %edx,-0x114(%rbp)
  102b22:	48 98                	cltq
  102b24:	88 8c 05 80 fd ff ff 	mov    %cl,-0x280(%rbp,%rax,1)
  102b2b:	48 c1 ad f0 fe ff ff 	shrq   $0x4,-0x110(%rbp)
  102b32:	04 
  102b33:	48 83 bd f0 fe ff ff 	cmpq   $0x0,-0x110(%rbp)
  102b3a:	00 
  102b3b:	75 a5                	jne    102ae2 <kprint_hex_w+0xa5b>
  102b3d:	eb 29                	jmp    102b68 <kprint_hex_w+0xae1>
  102b3f:	8b 85 4c ff ff ff    	mov    -0xb4(%rbp),%eax
  102b45:	8d 50 01             	lea    0x1(%rax),%edx
  102b48:	89 95 4c ff ff ff    	mov    %edx,-0xb4(%rbp)
  102b4e:	8b 95 ec fe ff ff    	mov    -0x114(%rbp),%edx
  102b54:	48 63 d2             	movslq %edx,%rdx
  102b57:	0f b6 94 15 80 fd ff 	movzbl -0x280(%rbp,%rdx,1),%edx
  102b5e:	ff 
  102b5f:	48 98                	cltq
  102b61:	88 94 05 a0 fd ff ff 	mov    %dl,-0x260(%rbp,%rax,1)
  102b68:	8b 85 ec fe ff ff    	mov    -0x114(%rbp),%eax
  102b6e:	8d 50 ff             	lea    -0x1(%rax),%edx
  102b71:	89 95 ec fe ff ff    	mov    %edx,-0x114(%rbp)
  102b77:	85 c0                	test   %eax,%eax
  102b79:	75 c4                	jne    102b3f <kprint_hex_w+0xab8>
  102b7b:	e9 ce 01 00 00       	jmp    102d4e <kprint_hex_w+0xcc7>
  102b80:	8b 85 a0 fe ff ff    	mov    -0x160(%rbp),%eax
  102b86:	83 f8 2f             	cmp    $0x2f,%eax
  102b89:	77 23                	ja     102bae <kprint_hex_w+0xb27>
  102b8b:	48 8b 85 b0 fe ff ff 	mov    -0x150(%rbp),%rax
  102b92:	8b 95 a0 fe ff ff    	mov    -0x160(%rbp),%edx
  102b98:	89 d2                	mov    %edx,%edx
  102b9a:	48 01 d0             	add    %rdx,%rax
  102b9d:	8b 95 a0 fe ff ff    	mov    -0x160(%rbp),%edx
  102ba3:	83 c2 08             	add    $0x8,%edx
  102ba6:	89 95 a0 fe ff ff    	mov    %edx,-0x160(%rbp)
  102bac:	eb 12                	jmp    102bc0 <kprint_hex_w+0xb39>
  102bae:	48 8b 85 a8 fe ff ff 	mov    -0x158(%rbp),%rax
  102bb5:	48 8d 50 08          	lea    0x8(%rax),%rdx
  102bb9:	48 89 95 a8 fe ff ff 	mov    %rdx,-0x158(%rbp)
  102bc0:	8b 00                	mov    (%rax),%eax
  102bc2:	88 85 cb fe ff ff    	mov    %al,-0x135(%rbp)
  102bc8:	8b 85 4c ff ff ff    	mov    -0xb4(%rbp),%eax
  102bce:	8d 50 01             	lea    0x1(%rax),%edx
  102bd1:	89 95 4c ff ff ff    	mov    %edx,-0xb4(%rbp)
  102bd7:	48 98                	cltq
  102bd9:	0f b6 95 cb fe ff ff 	movzbl -0x135(%rbp),%edx
  102be0:	88 94 05 a0 fd ff ff 	mov    %dl,-0x260(%rbp,%rax,1)
  102be7:	e9 62 01 00 00       	jmp    102d4e <kprint_hex_w+0xcc7>
  102bec:	8b 85 a0 fe ff ff    	mov    -0x160(%rbp),%eax
  102bf2:	83 f8 2f             	cmp    $0x2f,%eax
  102bf5:	77 23                	ja     102c1a <kprint_hex_w+0xb93>
  102bf7:	48 8b 85 b0 fe ff ff 	mov    -0x150(%rbp),%rax
  102bfe:	8b 95 a0 fe ff ff    	mov    -0x160(%rbp),%edx
  102c04:	89 d2                	mov    %edx,%edx
  102c06:	48 01 d0             	add    %rdx,%rax
  102c09:	8b 95 a0 fe ff ff    	mov    -0x160(%rbp),%edx
  102c0f:	83 c2 08             	add    $0x8,%edx
  102c12:	89 95 a0 fe ff ff    	mov    %edx,-0x160(%rbp)
  102c18:	eb 12                	jmp    102c2c <kprint_hex_w+0xba5>
  102c1a:	48 8b 85 a8 fe ff ff 	mov    -0x158(%rbp),%rax
  102c21:	48 8d 50 08          	lea    0x8(%rax),%rdx
  102c25:	48 89 95 a8 fe ff ff 	mov    %rdx,-0x158(%rbp)
  102c2c:	48 8b 00             	mov    (%rax),%rax
  102c2f:	48 89 85 e0 fe ff ff 	mov    %rax,-0x120(%rbp)
  102c36:	c7 85 dc fe ff ff 00 	movl   $0x0,-0x124(%rbp)
  102c3d:	00 00 00 
  102c40:	eb 07                	jmp    102c49 <kprint_hex_w+0xbc2>
  102c42:	83 85 dc fe ff ff 01 	addl   $0x1,-0x124(%rbp)
  102c49:	8b 85 dc fe ff ff    	mov    -0x124(%rbp),%eax
  102c4f:	48 63 d0             	movslq %eax,%rdx
  102c52:	48 8b 85 e0 fe ff ff 	mov    -0x120(%rbp),%rax
  102c59:	48 01 d0             	add    %rdx,%rax
  102c5c:	0f b6 00             	movzbl (%rax),%eax
  102c5f:	84 c0                	test   %al,%al
  102c61:	75 df                	jne    102c42 <kprint_hex_w+0xbbb>
  102c63:	8b 85 3c ff ff ff    	mov    -0xc4(%rbp),%eax
  102c69:	2b 85 dc fe ff ff    	sub    -0x124(%rbp),%eax
  102c6f:	89 85 d8 fe ff ff    	mov    %eax,-0x128(%rbp)
  102c75:	eb 2d                	jmp    102ca4 <kprint_hex_w+0xc1d>
  102c77:	83 bd 38 ff ff ff 00 	cmpl   $0x0,-0xc8(%rbp)
  102c7e:	74 07                	je     102c87 <kprint_hex_w+0xc00>
  102c80:	b9 30 00 00 00       	mov    $0x30,%ecx
  102c85:	eb 05                	jmp    102c8c <kprint_hex_w+0xc05>
  102c87:	b9 20 00 00 00       	mov    $0x20,%ecx
  102c8c:	8b 85 4c ff ff ff    	mov    -0xb4(%rbp),%eax
  102c92:	8d 50 01             	lea    0x1(%rax),%edx
  102c95:	89 95 4c ff ff ff    	mov    %edx,-0xb4(%rbp)
  102c9b:	48 98                	cltq
  102c9d:	88 8c 05 a0 fd ff ff 	mov    %cl,-0x260(%rbp,%rax,1)
  102ca4:	8b 85 d8 fe ff ff    	mov    -0x128(%rbp),%eax
  102caa:	8d 50 ff             	lea    -0x1(%rax),%edx
  102cad:	89 95 d8 fe ff ff    	mov    %edx,-0x128(%rbp)
  102cb3:	85 c0                	test   %eax,%eax
  102cb5:	7f c0                	jg     102c77 <kprint_hex_w+0xbf0>
  102cb7:	eb 2e                	jmp    102ce7 <kprint_hex_w+0xc60>
  102cb9:	48 8b 85 e0 fe ff ff 	mov    -0x120(%rbp),%rax
  102cc0:	48 8d 50 01          	lea    0x1(%rax),%rdx
  102cc4:	48 89 95 e0 fe ff ff 	mov    %rdx,-0x120(%rbp)
  102ccb:	8b 95 4c ff ff ff    	mov    -0xb4(%rbp),%edx
  102cd1:	8d 4a 01             	lea    0x1(%rdx),%ecx
  102cd4:	89 8d 4c ff ff ff    	mov    %ecx,-0xb4(%rbp)
  102cda:	0f b6 08             	movzbl (%rax),%ecx
  102cdd:	48 63 c2             	movslq %edx,%rax
  102ce0:	88 8c 05 a0 fd ff ff 	mov    %cl,-0x260(%rbp,%rax,1)
  102ce7:	48 8b 85 e0 fe ff ff 	mov    -0x120(%rbp),%rax
  102cee:	0f b6 00             	movzbl (%rax),%eax
  102cf1:	84 c0                	test   %al,%al
  102cf3:	75 c4                	jne    102cb9 <kprint_hex_w+0xc32>
  102cf5:	eb 57                	jmp    102d4e <kprint_hex_w+0xcc7>
  102cf7:	8b 85 4c ff ff ff    	mov    -0xb4(%rbp),%eax
  102cfd:	8d 50 01             	lea    0x1(%rax),%edx
  102d00:	89 95 4c ff ff ff    	mov    %edx,-0xb4(%rbp)
  102d06:	48 98                	cltq
  102d08:	c6 84 05 a0 fd ff ff 	movb   $0x25,-0x260(%rbp,%rax,1)
  102d0f:	25 
  102d10:	eb 3c                	jmp    102d4e <kprint_hex_w+0xcc7>
  102d12:	8b 85 4c ff ff ff    	mov    -0xb4(%rbp),%eax
  102d18:	8d 50 01             	lea    0x1(%rax),%edx
  102d1b:	89 95 4c ff ff ff    	mov    %edx,-0xb4(%rbp)
  102d21:	48 98                	cltq
  102d23:	c6 84 05 a0 fd ff ff 	movb   $0x25,-0x260(%rbp,%rax,1)
  102d2a:	25 
  102d2b:	8b 85 4c ff ff ff    	mov    -0xb4(%rbp),%eax
  102d31:	8d 50 01             	lea    0x1(%rax),%edx
  102d34:	89 95 4c ff ff ff    	mov    %edx,-0xb4(%rbp)
  102d3a:	48 8b 95 40 ff ff ff 	mov    -0xc0(%rbp),%rdx
  102d41:	0f b6 12             	movzbl (%rdx),%edx
  102d44:	48 98                	cltq
  102d46:	88 94 05 a0 fd ff ff 	mov    %dl,-0x260(%rbp,%rax,1)
  102d4d:	90                   	nop
  102d4e:	48 83 85 40 ff ff ff 	addq   $0x1,-0xc0(%rbp)
  102d55:	01 
  102d56:	48 8b 85 40 ff ff ff 	mov    -0xc0(%rbp),%rax
  102d5d:	0f b6 00             	movzbl (%rax),%eax
  102d60:	84 c0                	test   %al,%al
  102d62:	74 10                	je     102d74 <kprint_hex_w+0xced>
  102d64:	81 bd 4c ff ff ff fe 	cmpl   $0xfe,-0xb4(%rbp)
  102d6b:	00 00 00 
  102d6e:	0f 8e 58 f4 ff ff    	jle    1021cc <kprint_hex_w+0x145>
  102d74:	8b 85 4c ff ff ff    	mov    -0xb4(%rbp),%eax
  102d7a:	48 98                	cltq
  102d7c:	c6 84 05 a0 fd ff ff 	movb   $0x0,-0x260(%rbp,%rax,1)
  102d83:	00 
  102d84:	48 8d 85 a0 fd ff ff 	lea    -0x260(%rbp),%rax
  102d8b:	48 89 c7             	mov    %rax,%rdi
  102d8e:	e8 78 e8 ff ff       	call   10160b <kprint>
  102d93:	90                   	nop
  102d94:	c9                   	leave
  102d95:	c3                   	ret

0000000000102d96 <kvprintf>:
  102d96:	55                   	push   %rbp
  102d97:	48 89 e5             	mov    %rsp,%rbp
  102d9a:	48 81 ec b0 01 00 00 	sub    $0x1b0,%rsp
  102da1:	48 89 bd 58 fe ff ff 	mov    %rdi,-0x1a8(%rbp)
  102da8:	48 89 b5 50 fe ff ff 	mov    %rsi,-0x1b0(%rbp)
  102daf:	c7 45 fc 00 00 00 00 	movl   $0x0,-0x4(%rbp)
  102db6:	48 8b 85 58 fe ff ff 	mov    -0x1a8(%rbp),%rax
  102dbd:	48 89 45 f0          	mov    %rax,-0x10(%rbp)
  102dc1:	e9 c2 08 00 00       	jmp    103688 <kvprintf+0x8f2>
  102dc6:	48 8b 45 f0          	mov    -0x10(%rbp),%rax
  102dca:	0f b6 00             	movzbl (%rax),%eax
  102dcd:	3c 25                	cmp    $0x25,%al
  102dcf:	74 27                	je     102df8 <kvprintf+0x62>
  102dd1:	48 8b 45 f0          	mov    -0x10(%rbp),%rax
  102dd5:	48 8d 50 01          	lea    0x1(%rax),%rdx
  102dd9:	48 89 55 f0          	mov    %rdx,-0x10(%rbp)
  102ddd:	8b 55 fc             	mov    -0x4(%rbp),%edx
  102de0:	8d 4a 01             	lea    0x1(%rdx),%ecx
  102de3:	89 4d fc             	mov    %ecx,-0x4(%rbp)
  102de6:	0f b6 08             	movzbl (%rax),%ecx
  102de9:	48 63 c2             	movslq %edx,%rax
  102dec:	88 8c 05 80 fe ff ff 	mov    %cl,-0x180(%rbp,%rax,1)
  102df3:	e9 90 08 00 00       	jmp    103688 <kvprintf+0x8f2>
  102df8:	48 83 45 f0 01       	addq   $0x1,-0x10(%rbp)
  102dfd:	c7 45 ec 00 00 00 00 	movl   $0x0,-0x14(%rbp)
  102e04:	c7 45 e8 00 00 00 00 	movl   $0x0,-0x18(%rbp)
  102e0b:	48 8b 45 f0          	mov    -0x10(%rbp),%rax
  102e0f:	0f b6 00             	movzbl (%rax),%eax
  102e12:	3c 30                	cmp    $0x30,%al
  102e14:	75 36                	jne    102e4c <kvprintf+0xb6>
  102e16:	c7 45 e8 01 00 00 00 	movl   $0x1,-0x18(%rbp)
  102e1d:	48 83 45 f0 01       	addq   $0x1,-0x10(%rbp)
  102e22:	eb 28                	jmp    102e4c <kvprintf+0xb6>
  102e24:	8b 55 ec             	mov    -0x14(%rbp),%edx
  102e27:	89 d0                	mov    %edx,%eax
  102e29:	c1 e0 02             	shl    $0x2,%eax
  102e2c:	01 d0                	add    %edx,%eax
  102e2e:	01 c0                	add    %eax,%eax
  102e30:	89 c1                	mov    %eax,%ecx
  102e32:	48 8b 45 f0          	mov    -0x10(%rbp),%rax
  102e36:	48 8d 50 01          	lea    0x1(%rax),%rdx
  102e3a:	48 89 55 f0          	mov    %rdx,-0x10(%rbp)
  102e3e:	0f b6 00             	movzbl (%rax),%eax
  102e41:	0f be c0             	movsbl %al,%eax
  102e44:	83 e8 30             	sub    $0x30,%eax
  102e47:	01 c8                	add    %ecx,%eax
  102e49:	89 45 ec             	mov    %eax,-0x14(%rbp)
  102e4c:	48 8b 45 f0          	mov    -0x10(%rbp),%rax
  102e50:	0f b6 00             	movzbl (%rax),%eax
  102e53:	3c 2f                	cmp    $0x2f,%al
  102e55:	7e 0b                	jle    102e62 <kvprintf+0xcc>
  102e57:	48 8b 45 f0          	mov    -0x10(%rbp),%rax
  102e5b:	0f b6 00             	movzbl (%rax),%eax
  102e5e:	3c 39                	cmp    $0x39,%al
  102e60:	7e c2                	jle    102e24 <kvprintf+0x8e>
  102e62:	c7 45 e4 00 00 00 00 	movl   $0x0,-0x1c(%rbp)
  102e69:	48 8b 45 f0          	mov    -0x10(%rbp),%rax
  102e6d:	0f b6 00             	movzbl (%rax),%eax
  102e70:	3c 6c                	cmp    $0x6c,%al
  102e72:	75 1b                	jne    102e8f <kvprintf+0xf9>
  102e74:	48 8b 45 f0          	mov    -0x10(%rbp),%rax
  102e78:	48 83 c0 01          	add    $0x1,%rax
  102e7c:	0f b6 00             	movzbl (%rax),%eax
  102e7f:	3c 6c                	cmp    $0x6c,%al
  102e81:	75 0c                	jne    102e8f <kvprintf+0xf9>
  102e83:	c7 45 e4 01 00 00 00 	movl   $0x1,-0x1c(%rbp)
  102e8a:	48 83 45 f0 02       	addq   $0x2,-0x10(%rbp)
  102e8f:	48 8b 45 f0          	mov    -0x10(%rbp),%rax
  102e93:	0f b6 00             	movzbl (%rax),%eax
  102e96:	0f be c0             	movsbl %al,%eax
  102e99:	83 f8 78             	cmp    $0x78,%eax
  102e9c:	0f 84 f3 02 00 00    	je     103195 <kvprintf+0x3ff>
  102ea2:	83 f8 78             	cmp    $0x78,%eax
  102ea5:	0f 8f ab 07 00 00    	jg     103656 <kvprintf+0x8c0>
  102eab:	83 f8 75             	cmp    $0x75,%eax
  102eae:	0f 84 c0 01 00 00    	je     103074 <kvprintf+0x2de>
  102eb4:	83 f8 75             	cmp    $0x75,%eax
  102eb7:	0f 8f 99 07 00 00    	jg     103656 <kvprintf+0x8c0>
  102ebd:	83 f8 73             	cmp    $0x73,%eax
  102ec0:	0f 84 8e 06 00 00    	je     103554 <kvprintf+0x7be>
  102ec6:	83 f8 73             	cmp    $0x73,%eax
  102ec9:	0f 8f 87 07 00 00    	jg     103656 <kvprintf+0x8c0>
  102ecf:	83 f8 70             	cmp    $0x70,%eax
  102ed2:	0f 84 04 05 00 00    	je     1033dc <kvprintf+0x646>
  102ed8:	83 f8 70             	cmp    $0x70,%eax
  102edb:	0f 8f 75 07 00 00    	jg     103656 <kvprintf+0x8c0>
  102ee1:	83 f8 64             	cmp    $0x64,%eax
  102ee4:	74 32                	je     102f18 <kvprintf+0x182>
  102ee6:	83 f8 64             	cmp    $0x64,%eax
  102ee9:	0f 8f 67 07 00 00    	jg     103656 <kvprintf+0x8c0>
  102eef:	83 f8 63             	cmp    $0x63,%eax
  102ef2:	0f 84 e4 05 00 00    	je     1034dc <kvprintf+0x746>
  102ef8:	83 f8 63             	cmp    $0x63,%eax
  102efb:	0f 8f 55 07 00 00    	jg     103656 <kvprintf+0x8c0>
  102f01:	83 f8 25             	cmp    $0x25,%eax
  102f04:	0f 84 37 07 00 00    	je     103641 <kvprintf+0x8ab>
  102f0a:	83 f8 58             	cmp    $0x58,%eax
  102f0d:	0f 84 82 02 00 00    	je     103195 <kvprintf+0x3ff>
  102f13:	e9 3e 07 00 00       	jmp    103656 <kvprintf+0x8c0>
  102f18:	48 8b 85 50 fe ff ff 	mov    -0x1b0(%rbp),%rax
  102f1f:	8b 00                	mov    (%rax),%eax
  102f21:	83 f8 2f             	cmp    $0x2f,%eax
  102f24:	77 30                	ja     102f56 <kvprintf+0x1c0>
  102f26:	48 8b 85 50 fe ff ff 	mov    -0x1b0(%rbp),%rax
  102f2d:	48 8b 50 10          	mov    0x10(%rax),%rdx
  102f31:	48 8b 85 50 fe ff ff 	mov    -0x1b0(%rbp),%rax
  102f38:	8b 00                	mov    (%rax),%eax
  102f3a:	89 c0                	mov    %eax,%eax
  102f3c:	48 01 d0             	add    %rdx,%rax
  102f3f:	48 8b 95 50 fe ff ff 	mov    -0x1b0(%rbp),%rdx
  102f46:	8b 12                	mov    (%rdx),%edx
  102f48:	8d 4a 08             	lea    0x8(%rdx),%ecx
  102f4b:	48 8b 95 50 fe ff ff 	mov    -0x1b0(%rbp),%rdx
  102f52:	89 0a                	mov    %ecx,(%rdx)
  102f54:	eb 1a                	jmp    102f70 <kvprintf+0x1da>
  102f56:	48 8b 85 50 fe ff ff 	mov    -0x1b0(%rbp),%rax
  102f5d:	48 8b 40 08          	mov    0x8(%rax),%rax
  102f61:	48 8d 48 08          	lea    0x8(%rax),%rcx
  102f65:	48 8b 95 50 fe ff ff 	mov    -0x1b0(%rbp),%rdx
  102f6c:	48 89 4a 08          	mov    %rcx,0x8(%rdx)
  102f70:	8b 00                	mov    (%rax),%eax
  102f72:	89 45 90             	mov    %eax,-0x70(%rbp)
  102f75:	8b 45 90             	mov    -0x70(%rbp),%eax
  102f78:	c1 e8 1f             	shr    $0x1f,%eax
  102f7b:	0f b6 c0             	movzbl %al,%eax
  102f7e:	89 45 8c             	mov    %eax,-0x74(%rbp)
  102f81:	83 7d 8c 00          	cmpl   $0x0,-0x74(%rbp)
  102f85:	74 0a                	je     102f91 <kvprintf+0x1fb>
  102f87:	8b 45 90             	mov    -0x70(%rbp),%eax
  102f8a:	f7 d8                	neg    %eax
  102f8c:	89 45 e0             	mov    %eax,-0x20(%rbp)
  102f8f:	eb 06                	jmp    102f97 <kvprintf+0x201>
  102f91:	8b 45 90             	mov    -0x70(%rbp),%eax
  102f94:	89 45 e0             	mov    %eax,-0x20(%rbp)
  102f97:	c7 45 dc 00 00 00 00 	movl   $0x0,-0x24(%rbp)
  102f9e:	8b 4d e0             	mov    -0x20(%rbp),%ecx
  102fa1:	89 ca                	mov    %ecx,%edx
  102fa3:	b8 cd cc cc cc       	mov    $0xcccccccd,%eax
  102fa8:	48 0f af c2          	imul   %rdx,%rax
  102fac:	48 c1 e8 20          	shr    $0x20,%rax
  102fb0:	89 c2                	mov    %eax,%edx
  102fb2:	c1 ea 03             	shr    $0x3,%edx
  102fb5:	89 d0                	mov    %edx,%eax
  102fb7:	c1 e0 02             	shl    $0x2,%eax
  102fba:	01 d0                	add    %edx,%eax
  102fbc:	01 c0                	add    %eax,%eax
  102fbe:	29 c1                	sub    %eax,%ecx
  102fc0:	89 ca                	mov    %ecx,%edx
  102fc2:	89 d0                	mov    %edx,%eax
  102fc4:	8d 48 30             	lea    0x30(%rax),%ecx
  102fc7:	8b 45 dc             	mov    -0x24(%rbp),%eax
  102fca:	8d 50 01             	lea    0x1(%rax),%edx
  102fcd:	89 55 dc             	mov    %edx,-0x24(%rbp)
  102fd0:	89 ca                	mov    %ecx,%edx
  102fd2:	48 98                	cltq
  102fd4:	88 94 05 60 fe ff ff 	mov    %dl,-0x1a0(%rbp,%rax,1)
  102fdb:	8b 45 e0             	mov    -0x20(%rbp),%eax
  102fde:	89 c2                	mov    %eax,%edx
  102fe0:	b8 cd cc cc cc       	mov    $0xcccccccd,%eax
  102fe5:	48 0f af c2          	imul   %rdx,%rax
  102fe9:	48 c1 e8 20          	shr    $0x20,%rax
  102fed:	c1 e8 03             	shr    $0x3,%eax
  102ff0:	89 45 e0             	mov    %eax,-0x20(%rbp)
  102ff3:	83 7d e0 00          	cmpl   $0x0,-0x20(%rbp)
  102ff7:	75 a5                	jne    102f9e <kvprintf+0x208>
  102ff9:	83 7d 8c 00          	cmpl   $0x0,-0x74(%rbp)
  102ffd:	74 39                	je     103038 <kvprintf+0x2a2>
  102fff:	8b 45 dc             	mov    -0x24(%rbp),%eax
  103002:	8d 50 01             	lea    0x1(%rax),%edx
  103005:	89 55 dc             	mov    %edx,-0x24(%rbp)
  103008:	48 98                	cltq
  10300a:	c6 84 05 60 fe ff ff 	movb   $0x2d,-0x1a0(%rbp,%rax,1)
  103011:	2d 
  103012:	eb 24                	jmp    103038 <kvprintf+0x2a2>
  103014:	83 7d e8 00          	cmpl   $0x0,-0x18(%rbp)
  103018:	74 07                	je     103021 <kvprintf+0x28b>
  10301a:	b9 30 00 00 00       	mov    $0x30,%ecx
  10301f:	eb 05                	jmp    103026 <kvprintf+0x290>
  103021:	b9 20 00 00 00       	mov    $0x20,%ecx
  103026:	8b 45 dc             	mov    -0x24(%rbp),%eax
  103029:	8d 50 01             	lea    0x1(%rax),%edx
  10302c:	89 55 dc             	mov    %edx,-0x24(%rbp)
  10302f:	48 98                	cltq
  103031:	88 8c 05 60 fe ff ff 	mov    %cl,-0x1a0(%rbp,%rax,1)
  103038:	8b 45 dc             	mov    -0x24(%rbp),%eax
  10303b:	3b 45 ec             	cmp    -0x14(%rbp),%eax
  10303e:	7c d4                	jl     103014 <kvprintf+0x27e>
  103040:	eb 20                	jmp    103062 <kvprintf+0x2cc>
  103042:	8b 45 fc             	mov    -0x4(%rbp),%eax
  103045:	8d 50 01             	lea    0x1(%rax),%edx
  103048:	89 55 fc             	mov    %edx,-0x4(%rbp)
  10304b:	8b 55 dc             	mov    -0x24(%rbp),%edx
  10304e:	48 63 d2             	movslq %edx,%rdx
  103051:	0f b6 94 15 60 fe ff 	movzbl -0x1a0(%rbp,%rdx,1),%edx
  103058:	ff 
  103059:	48 98                	cltq
  10305b:	88 94 05 80 fe ff ff 	mov    %dl,-0x180(%rbp,%rax,1)
  103062:	8b 45 dc             	mov    -0x24(%rbp),%eax
  103065:	8d 50 ff             	lea    -0x1(%rax),%edx
  103068:	89 55 dc             	mov    %edx,-0x24(%rbp)
  10306b:	85 c0                	test   %eax,%eax
  10306d:	75 d3                	jne    103042 <kvprintf+0x2ac>
  10306f:	e9 0f 06 00 00       	jmp    103683 <kvprintf+0x8ed>
  103074:	48 8b 85 50 fe ff ff 	mov    -0x1b0(%rbp),%rax
  10307b:	8b 00                	mov    (%rax),%eax
  10307d:	83 f8 2f             	cmp    $0x2f,%eax
  103080:	77 30                	ja     1030b2 <kvprintf+0x31c>
  103082:	48 8b 85 50 fe ff ff 	mov    -0x1b0(%rbp),%rax
  103089:	48 8b 50 10          	mov    0x10(%rax),%rdx
  10308d:	48 8b 85 50 fe ff ff 	mov    -0x1b0(%rbp),%rax
  103094:	8b 00                	mov    (%rax),%eax
  103096:	89 c0                	mov    %eax,%eax
  103098:	48 01 d0             	add    %rdx,%rax
  10309b:	48 8b 95 50 fe ff ff 	mov    -0x1b0(%rbp),%rdx
  1030a2:	8b 12                	mov    (%rdx),%edx
  1030a4:	8d 4a 08             	lea    0x8(%rdx),%ecx
  1030a7:	48 8b 95 50 fe ff ff 	mov    -0x1b0(%rbp),%rdx
  1030ae:	89 0a                	mov    %ecx,(%rdx)
  1030b0:	eb 1a                	jmp    1030cc <kvprintf+0x336>
  1030b2:	48 8b 85 50 fe ff ff 	mov    -0x1b0(%rbp),%rax
  1030b9:	48 8b 40 08          	mov    0x8(%rax),%rax
  1030bd:	48 8d 48 08          	lea    0x8(%rax),%rcx
  1030c1:	48 8b 95 50 fe ff ff 	mov    -0x1b0(%rbp),%rdx
  1030c8:	48 89 4a 08          	mov    %rcx,0x8(%rdx)
  1030cc:	8b 00                	mov    (%rax),%eax
  1030ce:	89 45 d8             	mov    %eax,-0x28(%rbp)
  1030d1:	c7 45 d4 00 00 00 00 	movl   $0x0,-0x2c(%rbp)
  1030d8:	8b 4d d8             	mov    -0x28(%rbp),%ecx
  1030db:	89 ca                	mov    %ecx,%edx
  1030dd:	b8 cd cc cc cc       	mov    $0xcccccccd,%eax
  1030e2:	48 0f af c2          	imul   %rdx,%rax
  1030e6:	48 c1 e8 20          	shr    $0x20,%rax
  1030ea:	89 c2                	mov    %eax,%edx
  1030ec:	c1 ea 03             	shr    $0x3,%edx
  1030ef:	89 d0                	mov    %edx,%eax
  1030f1:	c1 e0 02             	shl    $0x2,%eax
  1030f4:	01 d0                	add    %edx,%eax
  1030f6:	01 c0                	add    %eax,%eax
  1030f8:	29 c1                	sub    %eax,%ecx
  1030fa:	89 ca                	mov    %ecx,%edx
  1030fc:	89 d0                	mov    %edx,%eax
  1030fe:	8d 48 30             	lea    0x30(%rax),%ecx
  103101:	8b 45 d4             	mov    -0x2c(%rbp),%eax
  103104:	8d 50 01             	lea    0x1(%rax),%edx
  103107:	89 55 d4             	mov    %edx,-0x2c(%rbp)
  10310a:	89 ca                	mov    %ecx,%edx
  10310c:	48 98                	cltq
  10310e:	88 94 05 60 fe ff ff 	mov    %dl,-0x1a0(%rbp,%rax,1)
  103115:	8b 45 d8             	mov    -0x28(%rbp),%eax
  103118:	89 c2                	mov    %eax,%edx
  10311a:	b8 cd cc cc cc       	mov    $0xcccccccd,%eax
  10311f:	48 0f af c2          	imul   %rdx,%rax
  103123:	48 c1 e8 20          	shr    $0x20,%rax
  103127:	c1 e8 03             	shr    $0x3,%eax
  10312a:	89 45 d8             	mov    %eax,-0x28(%rbp)
  10312d:	83 7d d8 00          	cmpl   $0x0,-0x28(%rbp)
  103131:	75 a5                	jne    1030d8 <kvprintf+0x342>
  103133:	eb 24                	jmp    103159 <kvprintf+0x3c3>
  103135:	83 7d e8 00          	cmpl   $0x0,-0x18(%rbp)
  103139:	74 07                	je     103142 <kvprintf+0x3ac>
  10313b:	b9 30 00 00 00       	mov    $0x30,%ecx
  103140:	eb 05                	jmp    103147 <kvprintf+0x3b1>
  103142:	b9 20 00 00 00       	mov    $0x20,%ecx
  103147:	8b 45 d4             	mov    -0x2c(%rbp),%eax
  10314a:	8d 50 01             	lea    0x1(%rax),%edx
  10314d:	89 55 d4             	mov    %edx,-0x2c(%rbp)
  103150:	48 98                	cltq
  103152:	88 8c 05 60 fe ff ff 	mov    %cl,-0x1a0(%rbp,%rax,1)
  103159:	8b 45 d4             	mov    -0x2c(%rbp),%eax
  10315c:	3b 45 ec             	cmp    -0x14(%rbp),%eax
  10315f:	7c d4                	jl     103135 <kvprintf+0x39f>
  103161:	eb 20                	jmp    103183 <kvprintf+0x3ed>
  103163:	8b 45 fc             	mov    -0x4(%rbp),%eax
  103166:	8d 50 01             	lea    0x1(%rax),%edx
  103169:	89 55 fc             	mov    %edx,-0x4(%rbp)
  10316c:	8b 55 d4             	mov    -0x2c(%rbp),%edx
  10316f:	48 63 d2             	movslq %edx,%rdx
  103172:	0f b6 94 15 60 fe ff 	movzbl -0x1a0(%rbp,%rdx,1),%edx
  103179:	ff 
  10317a:	48 98                	cltq
  10317c:	88 94 05 80 fe ff ff 	mov    %dl,-0x180(%rbp,%rax,1)
  103183:	8b 45 d4             	mov    -0x2c(%rbp),%eax
  103186:	8d 50 ff             	lea    -0x1(%rax),%edx
  103189:	89 55 d4             	mov    %edx,-0x2c(%rbp)
  10318c:	85 c0                	test   %eax,%eax
  10318e:	75 d3                	jne    103163 <kvprintf+0x3cd>
  103190:	e9 ee 04 00 00       	jmp    103683 <kvprintf+0x8ed>
  103195:	83 7d e4 00          	cmpl   $0x0,-0x1c(%rbp)
  103199:	0f 84 21 01 00 00    	je     1032c0 <kvprintf+0x52a>
  10319f:	48 8b 85 50 fe ff ff 	mov    -0x1b0(%rbp),%rax
  1031a6:	8b 00                	mov    (%rax),%eax
  1031a8:	83 f8 2f             	cmp    $0x2f,%eax
  1031ab:	77 30                	ja     1031dd <kvprintf+0x447>
  1031ad:	48 8b 85 50 fe ff ff 	mov    -0x1b0(%rbp),%rax
  1031b4:	48 8b 50 10          	mov    0x10(%rax),%rdx
  1031b8:	48 8b 85 50 fe ff ff 	mov    -0x1b0(%rbp),%rax
  1031bf:	8b 00                	mov    (%rax),%eax
  1031c1:	89 c0                	mov    %eax,%eax
  1031c3:	48 01 d0             	add    %rdx,%rax
  1031c6:	48 8b 95 50 fe ff ff 	mov    -0x1b0(%rbp),%rdx
  1031cd:	8b 12                	mov    (%rdx),%edx
  1031cf:	8d 4a 08             	lea    0x8(%rdx),%ecx
  1031d2:	48 8b 95 50 fe ff ff 	mov    -0x1b0(%rbp),%rdx
  1031d9:	89 0a                	mov    %ecx,(%rdx)
  1031db:	eb 1a                	jmp    1031f7 <kvprintf+0x461>
  1031dd:	48 8b 85 50 fe ff ff 	mov    -0x1b0(%rbp),%rax
  1031e4:	48 8b 40 08          	mov    0x8(%rax),%rax
  1031e8:	48 8d 48 08          	lea    0x8(%rax),%rcx
  1031ec:	48 8b 95 50 fe ff ff 	mov    -0x1b0(%rbp),%rdx
  1031f3:	48 89 4a 08          	mov    %rcx,0x8(%rdx)
  1031f7:	48 8b 00             	mov    (%rax),%rax
  1031fa:	48 89 45 c8          	mov    %rax,-0x38(%rbp)
  1031fe:	c7 45 c4 00 00 00 00 	movl   $0x0,-0x3c(%rbp)
  103205:	48 8b 45 c8          	mov    -0x38(%rbp),%rax
  103209:	83 e0 0f             	and    $0xf,%eax
  10320c:	89 45 80             	mov    %eax,-0x80(%rbp)
  10320f:	83 7d 80 09          	cmpl   $0x9,-0x80(%rbp)
  103213:	7f 0a                	jg     10321f <kvprintf+0x489>
  103215:	8b 45 80             	mov    -0x80(%rbp),%eax
  103218:	83 c0 30             	add    $0x30,%eax
  10321b:	89 c1                	mov    %eax,%ecx
  10321d:	eb 21                	jmp    103240 <kvprintf+0x4aa>
  10321f:	48 8b 45 f0          	mov    -0x10(%rbp),%rax
  103223:	0f b6 00             	movzbl (%rax),%eax
  103226:	3c 78                	cmp    $0x78,%al
  103228:	75 07                	jne    103231 <kvprintf+0x49b>
  10322a:	ba 61 00 00 00       	mov    $0x61,%edx
  10322f:	eb 05                	jmp    103236 <kvprintf+0x4a0>
  103231:	ba 41 00 00 00       	mov    $0x41,%edx
  103236:	8b 45 80             	mov    -0x80(%rbp),%eax
  103239:	01 d0                	add    %edx,%eax
  10323b:	83 e8 0a             	sub    $0xa,%eax
  10323e:	89 c1                	mov    %eax,%ecx
  103240:	8b 45 c4             	mov    -0x3c(%rbp),%eax
  103243:	8d 50 01             	lea    0x1(%rax),%edx
  103246:	89 55 c4             	mov    %edx,-0x3c(%rbp)
  103249:	48 98                	cltq
  10324b:	88 8c 05 60 fe ff ff 	mov    %cl,-0x1a0(%rbp,%rax,1)
  103252:	48 c1 6d c8 04       	shrq   $0x4,-0x38(%rbp)
  103257:	48 83 7d c8 00       	cmpq   $0x0,-0x38(%rbp)
  10325c:	75 a7                	jne    103205 <kvprintf+0x46f>
  10325e:	eb 24                	jmp    103284 <kvprintf+0x4ee>
  103260:	83 7d e8 00          	cmpl   $0x0,-0x18(%rbp)
  103264:	74 07                	je     10326d <kvprintf+0x4d7>
  103266:	b9 30 00 00 00       	mov    $0x30,%ecx
  10326b:	eb 05                	jmp    103272 <kvprintf+0x4dc>
  10326d:	b9 20 00 00 00       	mov    $0x20,%ecx
  103272:	8b 45 c4             	mov    -0x3c(%rbp),%eax
  103275:	8d 50 01             	lea    0x1(%rax),%edx
  103278:	89 55 c4             	mov    %edx,-0x3c(%rbp)
  10327b:	48 98                	cltq
  10327d:	88 8c 05 60 fe ff ff 	mov    %cl,-0x1a0(%rbp,%rax,1)
  103284:	8b 45 c4             	mov    -0x3c(%rbp),%eax
  103287:	3b 45 ec             	cmp    -0x14(%rbp),%eax
  10328a:	7c d4                	jl     103260 <kvprintf+0x4ca>
  10328c:	eb 20                	jmp    1032ae <kvprintf+0x518>
  10328e:	8b 45 fc             	mov    -0x4(%rbp),%eax
  103291:	8d 50 01             	lea    0x1(%rax),%edx
  103294:	89 55 fc             	mov    %edx,-0x4(%rbp)
  103297:	8b 55 c4             	mov    -0x3c(%rbp),%edx
  10329a:	48 63 d2             	movslq %edx,%rdx
  10329d:	0f b6 94 15 60 fe ff 	movzbl -0x1a0(%rbp,%rdx,1),%edx
  1032a4:	ff 
  1032a5:	48 98                	cltq
  1032a7:	88 94 05 80 fe ff ff 	mov    %dl,-0x180(%rbp,%rax,1)
  1032ae:	8b 45 c4             	mov    -0x3c(%rbp),%eax
  1032b1:	8d 50 ff             	lea    -0x1(%rax),%edx
  1032b4:	89 55 c4             	mov    %edx,-0x3c(%rbp)
  1032b7:	85 c0                	test   %eax,%eax
  1032b9:	75 d3                	jne    10328e <kvprintf+0x4f8>
  1032bb:	e9 c3 03 00 00       	jmp    103683 <kvprintf+0x8ed>
  1032c0:	48 8b 85 50 fe ff ff 	mov    -0x1b0(%rbp),%rax
  1032c7:	8b 00                	mov    (%rax),%eax
  1032c9:	83 f8 2f             	cmp    $0x2f,%eax
  1032cc:	77 30                	ja     1032fe <kvprintf+0x568>
  1032ce:	48 8b 85 50 fe ff ff 	mov    -0x1b0(%rbp),%rax
  1032d5:	48 8b 50 10          	mov    0x10(%rax),%rdx
  1032d9:	48 8b 85 50 fe ff ff 	mov    -0x1b0(%rbp),%rax
  1032e0:	8b 00                	mov    (%rax),%eax
  1032e2:	89 c0                	mov    %eax,%eax
  1032e4:	48 01 d0             	add    %rdx,%rax
  1032e7:	48 8b 95 50 fe ff ff 	mov    -0x1b0(%rbp),%rdx
  1032ee:	8b 12                	mov    (%rdx),%edx
  1032f0:	8d 4a 08             	lea    0x8(%rdx),%ecx
  1032f3:	48 8b 95 50 fe ff ff 	mov    -0x1b0(%rbp),%rdx
  1032fa:	89 0a                	mov    %ecx,(%rdx)
  1032fc:	eb 1a                	jmp    103318 <kvprintf+0x582>
  1032fe:	48 8b 85 50 fe ff ff 	mov    -0x1b0(%rbp),%rax
  103305:	48 8b 40 08          	mov    0x8(%rax),%rax
  103309:	48 8d 48 08          	lea    0x8(%rax),%rcx
  10330d:	48 8b 95 50 fe ff ff 	mov    -0x1b0(%rbp),%rdx
  103314:	48 89 4a 08          	mov    %rcx,0x8(%rdx)
  103318:	8b 00                	mov    (%rax),%eax
  10331a:	89 45 c0             	mov    %eax,-0x40(%rbp)
  10331d:	c7 45 bc 00 00 00 00 	movl   $0x0,-0x44(%rbp)
  103324:	8b 45 c0             	mov    -0x40(%rbp),%eax
  103327:	83 e0 0f             	and    $0xf,%eax
  10332a:	89 45 84             	mov    %eax,-0x7c(%rbp)
  10332d:	83 7d 84 09          	cmpl   $0x9,-0x7c(%rbp)
  103331:	7f 0a                	jg     10333d <kvprintf+0x5a7>
  103333:	8b 45 84             	mov    -0x7c(%rbp),%eax
  103336:	83 c0 30             	add    $0x30,%eax
  103339:	89 c1                	mov    %eax,%ecx
  10333b:	eb 21                	jmp    10335e <kvprintf+0x5c8>
  10333d:	48 8b 45 f0          	mov    -0x10(%rbp),%rax
  103341:	0f b6 00             	movzbl (%rax),%eax
  103344:	3c 78                	cmp    $0x78,%al
  103346:	75 07                	jne    10334f <kvprintf+0x5b9>
  103348:	ba 61 00 00 00       	mov    $0x61,%edx
  10334d:	eb 05                	jmp    103354 <kvprintf+0x5be>
  10334f:	ba 41 00 00 00       	mov    $0x41,%edx
  103354:	8b 45 84             	mov    -0x7c(%rbp),%eax
  103357:	01 d0                	add    %edx,%eax
  103359:	83 e8 0a             	sub    $0xa,%eax
  10335c:	89 c1                	mov    %eax,%ecx
  10335e:	8b 45 bc             	mov    -0x44(%rbp),%eax
  103361:	8d 50 01             	lea    0x1(%rax),%edx
  103364:	89 55 bc             	mov    %edx,-0x44(%rbp)
  103367:	48 98                	cltq
  103369:	88 8c 05 60 fe ff ff 	mov    %cl,-0x1a0(%rbp,%rax,1)
  103370:	c1 6d c0 04          	shrl   $0x4,-0x40(%rbp)
  103374:	83 7d c0 00          	cmpl   $0x0,-0x40(%rbp)
  103378:	75 aa                	jne    103324 <kvprintf+0x58e>
  10337a:	eb 24                	jmp    1033a0 <kvprintf+0x60a>
  10337c:	83 7d e8 00          	cmpl   $0x0,-0x18(%rbp)
  103380:	74 07                	je     103389 <kvprintf+0x5f3>
  103382:	b9 30 00 00 00       	mov    $0x30,%ecx
  103387:	eb 05                	jmp    10338e <kvprintf+0x5f8>
  103389:	b9 20 00 00 00       	mov    $0x20,%ecx
  10338e:	8b 45 bc             	mov    -0x44(%rbp),%eax
  103391:	8d 50 01             	lea    0x1(%rax),%edx
  103394:	89 55 bc             	mov    %edx,-0x44(%rbp)
  103397:	48 98                	cltq
  103399:	88 8c 05 60 fe ff ff 	mov    %cl,-0x1a0(%rbp,%rax,1)
  1033a0:	8b 45 bc             	mov    -0x44(%rbp),%eax
  1033a3:	3b 45 ec             	cmp    -0x14(%rbp),%eax
  1033a6:	7c d4                	jl     10337c <kvprintf+0x5e6>
  1033a8:	eb 20                	jmp    1033ca <kvprintf+0x634>
  1033aa:	8b 45 fc             	mov    -0x4(%rbp),%eax
  1033ad:	8d 50 01             	lea    0x1(%rax),%edx
  1033b0:	89 55 fc             	mov    %edx,-0x4(%rbp)
  1033b3:	8b 55 bc             	mov    -0x44(%rbp),%edx
  1033b6:	48 63 d2             	movslq %edx,%rdx
  1033b9:	0f b6 94 15 60 fe ff 	movzbl -0x1a0(%rbp,%rdx,1),%edx
  1033c0:	ff 
  1033c1:	48 98                	cltq
  1033c3:	88 94 05 80 fe ff ff 	mov    %dl,-0x180(%rbp,%rax,1)
  1033ca:	8b 45 bc             	mov    -0x44(%rbp),%eax
  1033cd:	8d 50 ff             	lea    -0x1(%rax),%edx
  1033d0:	89 55 bc             	mov    %edx,-0x44(%rbp)
  1033d3:	85 c0                	test   %eax,%eax
  1033d5:	75 d3                	jne    1033aa <kvprintf+0x614>
  1033d7:	e9 a7 02 00 00       	jmp    103683 <kvprintf+0x8ed>
  1033dc:	48 8b 85 50 fe ff ff 	mov    -0x1b0(%rbp),%rax
  1033e3:	8b 00                	mov    (%rax),%eax
  1033e5:	83 f8 2f             	cmp    $0x2f,%eax
  1033e8:	77 30                	ja     10341a <kvprintf+0x684>
  1033ea:	48 8b 85 50 fe ff ff 	mov    -0x1b0(%rbp),%rax
  1033f1:	48 8b 50 10          	mov    0x10(%rax),%rdx
  1033f5:	48 8b 85 50 fe ff ff 	mov    -0x1b0(%rbp),%rax
  1033fc:	8b 00                	mov    (%rax),%eax
  1033fe:	89 c0                	mov    %eax,%eax
  103400:	48 01 d0             	add    %rdx,%rax
  103403:	48 8b 95 50 fe ff ff 	mov    -0x1b0(%rbp),%rdx
  10340a:	8b 12                	mov    (%rdx),%edx
  10340c:	8d 4a 08             	lea    0x8(%rdx),%ecx
  10340f:	48 8b 95 50 fe ff ff 	mov    -0x1b0(%rbp),%rdx
  103416:	89 0a                	mov    %ecx,(%rdx)
  103418:	eb 1a                	jmp    103434 <kvprintf+0x69e>
  10341a:	48 8b 85 50 fe ff ff 	mov    -0x1b0(%rbp),%rax
  103421:	48 8b 40 08          	mov    0x8(%rax),%rax
  103425:	48 8d 48 08          	lea    0x8(%rax),%rcx
  103429:	48 8b 95 50 fe ff ff 	mov    -0x1b0(%rbp),%rdx
  103430:	48 89 4a 08          	mov    %rcx,0x8(%rdx)
  103434:	48 8b 00             	mov    (%rax),%rax
  103437:	48 89 45 b0          	mov    %rax,-0x50(%rbp)
  10343b:	8b 45 fc             	mov    -0x4(%rbp),%eax
  10343e:	8d 50 01             	lea    0x1(%rax),%edx
  103441:	89 55 fc             	mov    %edx,-0x4(%rbp)
  103444:	48 98                	cltq
  103446:	c6 84 05 80 fe ff ff 	movb   $0x30,-0x180(%rbp,%rax,1)
  10344d:	30 
  10344e:	8b 45 fc             	mov    -0x4(%rbp),%eax
  103451:	8d 50 01             	lea    0x1(%rax),%edx
  103454:	89 55 fc             	mov    %edx,-0x4(%rbp)
  103457:	48 98                	cltq
  103459:	c6 84 05 80 fe ff ff 	movb   $0x78,-0x180(%rbp,%rax,1)
  103460:	78 
  103461:	c7 45 ac 00 00 00 00 	movl   $0x0,-0x54(%rbp)
  103468:	48 8b 45 b0          	mov    -0x50(%rbp),%rax
  10346c:	83 e0 0f             	and    $0xf,%eax
  10346f:	89 45 94             	mov    %eax,-0x6c(%rbp)
  103472:	83 7d 94 09          	cmpl   $0x9,-0x6c(%rbp)
  103476:	7f 0a                	jg     103482 <kvprintf+0x6ec>
  103478:	8b 45 94             	mov    -0x6c(%rbp),%eax
  10347b:	83 c0 30             	add    $0x30,%eax
  10347e:	89 c1                	mov    %eax,%ecx
  103480:	eb 08                	jmp    10348a <kvprintf+0x6f4>
  103482:	8b 45 94             	mov    -0x6c(%rbp),%eax
  103485:	83 c0 57             	add    $0x57,%eax
  103488:	89 c1                	mov    %eax,%ecx
  10348a:	8b 45 ac             	mov    -0x54(%rbp),%eax
  10348d:	8d 50 01             	lea    0x1(%rax),%edx
  103490:	89 55 ac             	mov    %edx,-0x54(%rbp)
  103493:	48 98                	cltq
  103495:	88 8c 05 60 fe ff ff 	mov    %cl,-0x1a0(%rbp,%rax,1)
  10349c:	48 c1 6d b0 04       	shrq   $0x4,-0x50(%rbp)
  1034a1:	48 83 7d b0 00       	cmpq   $0x0,-0x50(%rbp)
  1034a6:	75 c0                	jne    103468 <kvprintf+0x6d2>
  1034a8:	eb 20                	jmp    1034ca <kvprintf+0x734>
  1034aa:	8b 45 fc             	mov    -0x4(%rbp),%eax
  1034ad:	8d 50 01             	lea    0x1(%rax),%edx
  1034b0:	89 55 fc             	mov    %edx,-0x4(%rbp)
  1034b3:	8b 55 ac             	mov    -0x54(%rbp),%edx
  1034b6:	48 63 d2             	movslq %edx,%rdx
  1034b9:	0f b6 94 15 60 fe ff 	movzbl -0x1a0(%rbp,%rdx,1),%edx
  1034c0:	ff 
  1034c1:	48 98                	cltq
  1034c3:	88 94 05 80 fe ff ff 	mov    %dl,-0x180(%rbp,%rax,1)
  1034ca:	8b 45 ac             	mov    -0x54(%rbp),%eax
  1034cd:	8d 50 ff             	lea    -0x1(%rax),%edx
  1034d0:	89 55 ac             	mov    %edx,-0x54(%rbp)
  1034d3:	85 c0                	test   %eax,%eax
  1034d5:	75 d3                	jne    1034aa <kvprintf+0x714>
  1034d7:	e9 a7 01 00 00       	jmp    103683 <kvprintf+0x8ed>
  1034dc:	48 8b 85 50 fe ff ff 	mov    -0x1b0(%rbp),%rax
  1034e3:	8b 00                	mov    (%rax),%eax
  1034e5:	83 f8 2f             	cmp    $0x2f,%eax
  1034e8:	77 30                	ja     10351a <kvprintf+0x784>
  1034ea:	48 8b 85 50 fe ff ff 	mov    -0x1b0(%rbp),%rax
  1034f1:	48 8b 50 10          	mov    0x10(%rax),%rdx
  1034f5:	48 8b 85 50 fe ff ff 	mov    -0x1b0(%rbp),%rax
  1034fc:	8b 00                	mov    (%rax),%eax
  1034fe:	89 c0                	mov    %eax,%eax
  103500:	48 01 d0             	add    %rdx,%rax
  103503:	48 8b 95 50 fe ff ff 	mov    -0x1b0(%rbp),%rdx
  10350a:	8b 12                	mov    (%rdx),%edx
  10350c:	8d 4a 08             	lea    0x8(%rdx),%ecx
  10350f:	48 8b 95 50 fe ff ff 	mov    -0x1b0(%rbp),%rdx
  103516:	89 0a                	mov    %ecx,(%rdx)
  103518:	eb 1a                	jmp    103534 <kvprintf+0x79e>
  10351a:	48 8b 85 50 fe ff ff 	mov    -0x1b0(%rbp),%rax
  103521:	48 8b 40 08          	mov    0x8(%rax),%rax
  103525:	48 8d 48 08          	lea    0x8(%rax),%rcx
  103529:	48 8b 95 50 fe ff ff 	mov    -0x1b0(%rbp),%rdx
  103530:	48 89 4a 08          	mov    %rcx,0x8(%rdx)
  103534:	8b 00                	mov    (%rax),%eax
  103536:	88 45 8b             	mov    %al,-0x75(%rbp)
  103539:	8b 45 fc             	mov    -0x4(%rbp),%eax
  10353c:	8d 50 01             	lea    0x1(%rax),%edx
  10353f:	89 55 fc             	mov    %edx,-0x4(%rbp)
  103542:	48 98                	cltq
  103544:	0f b6 55 8b          	movzbl -0x75(%rbp),%edx
  103548:	88 94 05 80 fe ff ff 	mov    %dl,-0x180(%rbp,%rax,1)
  10354f:	e9 2f 01 00 00       	jmp    103683 <kvprintf+0x8ed>
  103554:	48 8b 85 50 fe ff ff 	mov    -0x1b0(%rbp),%rax
  10355b:	8b 00                	mov    (%rax),%eax
  10355d:	83 f8 2f             	cmp    $0x2f,%eax
  103560:	77 30                	ja     103592 <kvprintf+0x7fc>
  103562:	48 8b 85 50 fe ff ff 	mov    -0x1b0(%rbp),%rax
  103569:	48 8b 50 10          	mov    0x10(%rax),%rdx
  10356d:	48 8b 85 50 fe ff ff 	mov    -0x1b0(%rbp),%rax
  103574:	8b 00                	mov    (%rax),%eax
  103576:	89 c0                	mov    %eax,%eax
  103578:	48 01 d0             	add    %rdx,%rax
  10357b:	48 8b 95 50 fe ff ff 	mov    -0x1b0(%rbp),%rdx
  103582:	8b 12                	mov    (%rdx),%edx
  103584:	8d 4a 08             	lea    0x8(%rdx),%ecx
  103587:	48 8b 95 50 fe ff ff 	mov    -0x1b0(%rbp),%rdx
  10358e:	89 0a                	mov    %ecx,(%rdx)
  103590:	eb 1a                	jmp    1035ac <kvprintf+0x816>
  103592:	48 8b 85 50 fe ff ff 	mov    -0x1b0(%rbp),%rax
  103599:	48 8b 40 08          	mov    0x8(%rax),%rax
  10359d:	48 8d 48 08          	lea    0x8(%rax),%rcx
  1035a1:	48 8b 95 50 fe ff ff 	mov    -0x1b0(%rbp),%rdx
  1035a8:	48 89 4a 08          	mov    %rcx,0x8(%rdx)
  1035ac:	48 8b 00             	mov    (%rax),%rax
  1035af:	48 89 45 a0          	mov    %rax,-0x60(%rbp)
  1035b3:	c7 45 9c 00 00 00 00 	movl   $0x0,-0x64(%rbp)
  1035ba:	eb 04                	jmp    1035c0 <kvprintf+0x82a>
  1035bc:	83 45 9c 01          	addl   $0x1,-0x64(%rbp)
  1035c0:	8b 45 9c             	mov    -0x64(%rbp),%eax
  1035c3:	48 63 d0             	movslq %eax,%rdx
  1035c6:	48 8b 45 a0          	mov    -0x60(%rbp),%rax
  1035ca:	48 01 d0             	add    %rdx,%rax
  1035cd:	0f b6 00             	movzbl (%rax),%eax
  1035d0:	84 c0                	test   %al,%al
  1035d2:	75 e8                	jne    1035bc <kvprintf+0x826>
  1035d4:	8b 45 ec             	mov    -0x14(%rbp),%eax
  1035d7:	2b 45 9c             	sub    -0x64(%rbp),%eax
  1035da:	89 45 98             	mov    %eax,-0x68(%rbp)
  1035dd:	eb 24                	jmp    103603 <kvprintf+0x86d>
  1035df:	83 7d e8 00          	cmpl   $0x0,-0x18(%rbp)
  1035e3:	74 07                	je     1035ec <kvprintf+0x856>
  1035e5:	b9 30 00 00 00       	mov    $0x30,%ecx
  1035ea:	eb 05                	jmp    1035f1 <kvprintf+0x85b>
  1035ec:	b9 20 00 00 00       	mov    $0x20,%ecx
  1035f1:	8b 45 fc             	mov    -0x4(%rbp),%eax
  1035f4:	8d 50 01             	lea    0x1(%rax),%edx
  1035f7:	89 55 fc             	mov    %edx,-0x4(%rbp)
  1035fa:	48 98                	cltq
  1035fc:	88 8c 05 80 fe ff ff 	mov    %cl,-0x180(%rbp,%rax,1)
  103603:	8b 45 98             	mov    -0x68(%rbp),%eax
  103606:	8d 50 ff             	lea    -0x1(%rax),%edx
  103609:	89 55 98             	mov    %edx,-0x68(%rbp)
  10360c:	85 c0                	test   %eax,%eax
  10360e:	7f cf                	jg     1035df <kvprintf+0x849>
  103610:	eb 22                	jmp    103634 <kvprintf+0x89e>
  103612:	48 8b 45 a0          	mov    -0x60(%rbp),%rax
  103616:	48 8d 50 01          	lea    0x1(%rax),%rdx
  10361a:	48 89 55 a0          	mov    %rdx,-0x60(%rbp)
  10361e:	8b 55 fc             	mov    -0x4(%rbp),%edx
  103621:	8d 4a 01             	lea    0x1(%rdx),%ecx
  103624:	89 4d fc             	mov    %ecx,-0x4(%rbp)
  103627:	0f b6 08             	movzbl (%rax),%ecx
  10362a:	48 63 c2             	movslq %edx,%rax
  10362d:	88 8c 05 80 fe ff ff 	mov    %cl,-0x180(%rbp,%rax,1)
  103634:	48 8b 45 a0          	mov    -0x60(%rbp),%rax
  103638:	0f b6 00             	movzbl (%rax),%eax
  10363b:	84 c0                	test   %al,%al
  10363d:	75 d3                	jne    103612 <kvprintf+0x87c>
  10363f:	eb 42                	jmp    103683 <kvprintf+0x8ed>
  103641:	8b 45 fc             	mov    -0x4(%rbp),%eax
  103644:	8d 50 01             	lea    0x1(%rax),%edx
  103647:	89 55 fc             	mov    %edx,-0x4(%rbp)
  10364a:	48 98                	cltq
  10364c:	c6 84 05 80 fe ff ff 	movb   $0x25,-0x180(%rbp,%rax,1)
  103653:	25 
  103654:	eb 2d                	jmp    103683 <kvprintf+0x8ed>
  103656:	8b 45 fc             	mov    -0x4(%rbp),%eax
  103659:	8d 50 01             	lea    0x1(%rax),%edx
  10365c:	89 55 fc             	mov    %edx,-0x4(%rbp)
  10365f:	48 98                	cltq
  103661:	c6 84 05 80 fe ff ff 	movb   $0x25,-0x180(%rbp,%rax,1)
  103668:	25 
  103669:	8b 45 fc             	mov    -0x4(%rbp),%eax
  10366c:	8d 50 01             	lea    0x1(%rax),%edx
  10366f:	89 55 fc             	mov    %edx,-0x4(%rbp)
  103672:	48 8b 55 f0          	mov    -0x10(%rbp),%rdx
  103676:	0f b6 12             	movzbl (%rdx),%edx
  103679:	48 98                	cltq
  10367b:	88 94 05 80 fe ff ff 	mov    %dl,-0x180(%rbp,%rax,1)
  103682:	90                   	nop
  103683:	48 83 45 f0 01       	addq   $0x1,-0x10(%rbp)
  103688:	48 8b 45 f0          	mov    -0x10(%rbp),%rax
  10368c:	0f b6 00             	movzbl (%rax),%eax
  10368f:	84 c0                	test   %al,%al
  103691:	74 0d                	je     1036a0 <kvprintf+0x90a>
  103693:	81 7d fc fe 00 00 00 	cmpl   $0xfe,-0x4(%rbp)
  10369a:	0f 8e 26 f7 ff ff    	jle    102dc6 <kvprintf+0x30>
  1036a0:	8b 45 fc             	mov    -0x4(%rbp),%eax
  1036a3:	48 98                	cltq
  1036a5:	c6 84 05 80 fe ff ff 	movb   $0x0,-0x180(%rbp,%rax,1)
  1036ac:	00 
  1036ad:	48 8d 85 80 fe ff ff 	lea    -0x180(%rbp),%rax
  1036b4:	48 89 c7             	mov    %rax,%rdi
  1036b7:	e8 4f df ff ff       	call   10160b <kprint>
  1036bc:	90                   	nop
  1036bd:	c9                   	leave
  1036be:	c3                   	ret

00000000001036bf <vga_draw_text>:
  1036bf:	55                   	push   %rbp
  1036c0:	48 89 e5             	mov    %rsp,%rbp
  1036c3:	48 83 ec 28          	sub    $0x28,%rsp
  1036c7:	48 89 7d e8          	mov    %rdi,-0x18(%rbp)
  1036cb:	89 75 e4             	mov    %esi,-0x1c(%rbp)
  1036ce:	89 55 e0             	mov    %edx,-0x20(%rbp)
  1036d1:	89 c8                	mov    %ecx,%eax
  1036d3:	88 45 dc             	mov    %al,-0x24(%rbp)
  1036d6:	8b 55 e0             	mov    -0x20(%rbp),%edx
  1036d9:	89 d0                	mov    %edx,%eax
  1036db:	c1 e0 02             	shl    $0x2,%eax
  1036de:	01 d0                	add    %edx,%eax
  1036e0:	c1 e0 04             	shl    $0x4,%eax
  1036e3:	89 c2                	mov    %eax,%edx
  1036e5:	8b 45 e4             	mov    -0x1c(%rbp),%eax
  1036e8:	01 d0                	add    %edx,%eax
  1036ea:	01 c0                	add    %eax,%eax
  1036ec:	89 45 f8             	mov    %eax,-0x8(%rbp)
  1036ef:	c7 45 fc 00 00 00 00 	movl   $0x0,-0x4(%rbp)
  1036f6:	eb 32                	jmp    10372a <vga_draw_text+0x6b>
  1036f8:	8b 45 fc             	mov    -0x4(%rbp),%eax
  1036fb:	8d 14 00             	lea    (%rax,%rax,1),%edx
  1036fe:	8b 45 f8             	mov    -0x8(%rbp),%eax
  103701:	01 d0                	add    %edx,%eax
  103703:	0f b7 d0             	movzwl %ax,%edx
  103706:	0f b6 4d dc          	movzbl -0x24(%rbp),%ecx
  10370a:	8b 45 fc             	mov    -0x4(%rbp),%eax
  10370d:	48 63 f0             	movslq %eax,%rsi
  103710:	48 8b 45 e8          	mov    -0x18(%rbp),%rax
  103714:	48 01 f0             	add    %rsi,%rax
  103717:	0f b6 00             	movzbl (%rax),%eax
  10371a:	0f b6 c0             	movzbl %al,%eax
  10371d:	89 ce                	mov    %ecx,%esi
  10371f:	89 c7                	mov    %eax,%edi
  103721:	e8 95 e3 ff ff       	call   101abb <write>
  103726:	83 45 fc 01          	addl   $0x1,-0x4(%rbp)
  10372a:	8b 45 fc             	mov    -0x4(%rbp),%eax
  10372d:	48 63 d0             	movslq %eax,%rdx
  103730:	48 8b 45 e8          	mov    -0x18(%rbp),%rax
  103734:	48 01 d0             	add    %rdx,%rax
  103737:	0f b6 00             	movzbl (%rax),%eax
  10373a:	84 c0                	test   %al,%al
  10373c:	75 ba                	jne    1036f8 <vga_draw_text+0x39>
  10373e:	90                   	nop
  10373f:	90                   	nop
  103740:	c9                   	leave
  103741:	c3                   	ret

0000000000103742 <snprintf>:
  103742:	55                   	push   %rbp
  103743:	48 89 e5             	mov    %rsp,%rbp
  103746:	48 81 ec a0 01 00 00 	sub    $0x1a0,%rsp
  10374d:	48 89 bd 78 fe ff ff 	mov    %rdi,-0x188(%rbp)
  103754:	48 89 b5 70 fe ff ff 	mov    %rsi,-0x190(%rbp)
  10375b:	48 89 95 68 fe ff ff 	mov    %rdx,-0x198(%rbp)
  103762:	48 89 8d 68 ff ff ff 	mov    %rcx,-0x98(%rbp)
  103769:	4c 89 85 70 ff ff ff 	mov    %r8,-0x90(%rbp)
  103770:	4c 89 8d 78 ff ff ff 	mov    %r9,-0x88(%rbp)
  103777:	84 c0                	test   %al,%al
  103779:	74 20                	je     10379b <snprintf+0x59>
  10377b:	0f 29 45 80          	movaps %xmm0,-0x80(%rbp)
  10377f:	0f 29 4d 90          	movaps %xmm1,-0x70(%rbp)
  103783:	0f 29 55 a0          	movaps %xmm2,-0x60(%rbp)
  103787:	0f 29 5d b0          	movaps %xmm3,-0x50(%rbp)
  10378b:	0f 29 65 c0          	movaps %xmm4,-0x40(%rbp)
  10378f:	0f 29 6d d0          	movaps %xmm5,-0x30(%rbp)
  103793:	0f 29 75 e0          	movaps %xmm6,-0x20(%rbp)
  103797:	0f 29 7d f0          	movaps %xmm7,-0x10(%rbp)
  10379b:	c7 85 d0 fe ff ff 18 	movl   $0x18,-0x130(%rbp)
  1037a2:	00 00 00 
  1037a5:	c7 85 d4 fe ff ff 30 	movl   $0x30,-0x12c(%rbp)
  1037ac:	00 00 00 
  1037af:	48 8d 45 10          	lea    0x10(%rbp),%rax
  1037b3:	48 89 85 d8 fe ff ff 	mov    %rax,-0x128(%rbp)
  1037ba:	48 8d 85 50 ff ff ff 	lea    -0xb0(%rbp),%rax
  1037c1:	48 89 85 e0 fe ff ff 	mov    %rax,-0x120(%rbp)
  1037c8:	48 c7 85 48 ff ff ff 	movq   $0x0,-0xb8(%rbp)
  1037cf:	00 00 00 00 
  1037d3:	e9 8d 0a 00 00       	jmp    104265 <snprintf+0xb23>
  1037d8:	48 8b 85 68 fe ff ff 	mov    -0x198(%rbp),%rax
  1037df:	0f b6 00             	movzbl (%rax),%eax
  1037e2:	3c 25                	cmp    $0x25,%al
  1037e4:	74 2d                	je     103813 <snprintf+0xd1>
  1037e6:	48 8b 85 48 ff ff ff 	mov    -0xb8(%rbp),%rax
  1037ed:	48 8d 50 01          	lea    0x1(%rax),%rdx
  1037f1:	48 89 95 48 ff ff ff 	mov    %rdx,-0xb8(%rbp)
  1037f8:	48 8b 95 78 fe ff ff 	mov    -0x188(%rbp),%rdx
  1037ff:	48 01 c2             	add    %rax,%rdx
  103802:	48 8b 85 68 fe ff ff 	mov    -0x198(%rbp),%rax
  103809:	0f b6 00             	movzbl (%rax),%eax
  10380c:	88 02                	mov    %al,(%rdx)
  10380e:	e9 4a 0a 00 00       	jmp    10425d <snprintf+0xb1b>
  103813:	48 83 85 68 fe ff ff 	addq   $0x1,-0x198(%rbp)
  10381a:	01 
  10381b:	c7 85 44 ff ff ff 00 	movl   $0x0,-0xbc(%rbp)
  103822:	00 00 00 
  103825:	c7 85 40 ff ff ff 00 	movl   $0x0,-0xc0(%rbp)
  10382c:	00 00 00 
  10382f:	48 8b 85 68 fe ff ff 	mov    -0x198(%rbp),%rax
  103836:	0f b6 00             	movzbl (%rax),%eax
  103839:	3c 30                	cmp    $0x30,%al
  10383b:	75 45                	jne    103882 <snprintf+0x140>
  10383d:	c7 85 40 ff ff ff 01 	movl   $0x1,-0xc0(%rbp)
  103844:	00 00 00 
  103847:	48 83 85 68 fe ff ff 	addq   $0x1,-0x198(%rbp)
  10384e:	01 
  10384f:	eb 31                	jmp    103882 <snprintf+0x140>
  103851:	8b 95 44 ff ff ff    	mov    -0xbc(%rbp),%edx
  103857:	89 d0                	mov    %edx,%eax
  103859:	c1 e0 02             	shl    $0x2,%eax
  10385c:	01 d0                	add    %edx,%eax
  10385e:	01 c0                	add    %eax,%eax
  103860:	89 c2                	mov    %eax,%edx
  103862:	48 8b 85 68 fe ff ff 	mov    -0x198(%rbp),%rax
  103869:	0f b6 00             	movzbl (%rax),%eax
  10386c:	0f be c0             	movsbl %al,%eax
  10386f:	83 e8 30             	sub    $0x30,%eax
  103872:	01 d0                	add    %edx,%eax
  103874:	89 85 44 ff ff ff    	mov    %eax,-0xbc(%rbp)
  10387a:	48 83 85 68 fe ff ff 	addq   $0x1,-0x198(%rbp)
  103881:	01 
  103882:	48 8b 85 68 fe ff ff 	mov    -0x198(%rbp),%rax
  103889:	0f b6 00             	movzbl (%rax),%eax
  10388c:	3c 2f                	cmp    $0x2f,%al
  10388e:	7e 0e                	jle    10389e <snprintf+0x15c>
  103890:	48 8b 85 68 fe ff ff 	mov    -0x198(%rbp),%rax
  103897:	0f b6 00             	movzbl (%rax),%eax
  10389a:	3c 39                	cmp    $0x39,%al
  10389c:	7e b3                	jle    103851 <snprintf+0x10f>
  10389e:	48 8b 85 68 fe ff ff 	mov    -0x198(%rbp),%rax
  1038a5:	0f b6 00             	movzbl (%rax),%eax
  1038a8:	3c 73                	cmp    $0x73,%al
  1038aa:	0f 85 45 01 00 00    	jne    1039f5 <snprintf+0x2b3>
  1038b0:	8b 85 d0 fe ff ff    	mov    -0x130(%rbp),%eax
  1038b6:	83 f8 2f             	cmp    $0x2f,%eax
  1038b9:	77 23                	ja     1038de <snprintf+0x19c>
  1038bb:	48 8b 85 e0 fe ff ff 	mov    -0x120(%rbp),%rax
  1038c2:	8b 95 d0 fe ff ff    	mov    -0x130(%rbp),%edx
  1038c8:	89 d2                	mov    %edx,%edx
  1038ca:	48 01 d0             	add    %rdx,%rax
  1038cd:	8b 95 d0 fe ff ff    	mov    -0x130(%rbp),%edx
  1038d3:	83 c2 08             	add    $0x8,%edx
  1038d6:	89 95 d0 fe ff ff    	mov    %edx,-0x130(%rbp)
  1038dc:	eb 12                	jmp    1038f0 <snprintf+0x1ae>
  1038de:	48 8b 85 d8 fe ff ff 	mov    -0x128(%rbp),%rax
  1038e5:	48 8d 50 08          	lea    0x8(%rax),%rdx
  1038e9:	48 89 95 d8 fe ff ff 	mov    %rdx,-0x128(%rbp)
  1038f0:	48 8b 00             	mov    (%rax),%rax
  1038f3:	48 89 85 38 ff ff ff 	mov    %rax,-0xc8(%rbp)
  1038fa:	c7 85 34 ff ff ff 00 	movl   $0x0,-0xcc(%rbp)
  103901:	00 00 00 
  103904:	eb 07                	jmp    10390d <snprintf+0x1cb>
  103906:	83 85 34 ff ff ff 01 	addl   $0x1,-0xcc(%rbp)
  10390d:	8b 85 34 ff ff ff    	mov    -0xcc(%rbp),%eax
  103913:	48 63 d0             	movslq %eax,%rdx
  103916:	48 8b 85 38 ff ff ff 	mov    -0xc8(%rbp),%rax
  10391d:	48 01 d0             	add    %rdx,%rax
  103920:	0f b6 00             	movzbl (%rax),%eax
  103923:	84 c0                	test   %al,%al
  103925:	75 df                	jne    103906 <snprintf+0x1c4>
  103927:	8b 85 44 ff ff ff    	mov    -0xbc(%rbp),%eax
  10392d:	2b 85 34 ff ff ff    	sub    -0xcc(%rbp),%eax
  103933:	89 85 30 ff ff ff    	mov    %eax,-0xd0(%rbp)
  103939:	eb 33                	jmp    10396e <snprintf+0x22c>
  10393b:	83 bd 40 ff ff ff 00 	cmpl   $0x0,-0xc0(%rbp)
  103942:	74 07                	je     10394b <snprintf+0x209>
  103944:	b9 30 00 00 00       	mov    $0x30,%ecx
  103949:	eb 05                	jmp    103950 <snprintf+0x20e>
  10394b:	b9 20 00 00 00       	mov    $0x20,%ecx
  103950:	48 8b 85 48 ff ff ff 	mov    -0xb8(%rbp),%rax
  103957:	48 8d 50 01          	lea    0x1(%rax),%rdx
  10395b:	48 89 95 48 ff ff ff 	mov    %rdx,-0xb8(%rbp)
  103962:	48 8b 95 78 fe ff ff 	mov    -0x188(%rbp),%rdx
  103969:	48 01 d0             	add    %rdx,%rax
  10396c:	88 08                	mov    %cl,(%rax)
  10396e:	8b 85 30 ff ff ff    	mov    -0xd0(%rbp),%eax
  103974:	8d 50 ff             	lea    -0x1(%rax),%edx
  103977:	89 95 30 ff ff ff    	mov    %edx,-0xd0(%rbp)
  10397d:	85 c0                	test   %eax,%eax
  10397f:	7e 49                	jle    1039ca <snprintf+0x288>
  103981:	48 8b 85 48 ff ff ff 	mov    -0xb8(%rbp),%rax
  103988:	48 83 c0 01          	add    $0x1,%rax
  10398c:	48 3b 85 70 fe ff ff 	cmp    -0x190(%rbp),%rax
  103993:	72 a6                	jb     10393b <snprintf+0x1f9>
  103995:	eb 33                	jmp    1039ca <snprintf+0x288>
  103997:	48 8b 85 38 ff ff ff 	mov    -0xc8(%rbp),%rax
  10399e:	48 8d 50 01          	lea    0x1(%rax),%rdx
  1039a2:	48 89 95 38 ff ff ff 	mov    %rdx,-0xc8(%rbp)
  1039a9:	48 8b 95 48 ff ff ff 	mov    -0xb8(%rbp),%rdx
  1039b0:	48 8d 4a 01          	lea    0x1(%rdx),%rcx
  1039b4:	48 89 8d 48 ff ff ff 	mov    %rcx,-0xb8(%rbp)
  1039bb:	48 8b 8d 78 fe ff ff 	mov    -0x188(%rbp),%rcx
  1039c2:	48 01 ca             	add    %rcx,%rdx
  1039c5:	0f b6 00             	movzbl (%rax),%eax
  1039c8:	88 02                	mov    %al,(%rdx)
  1039ca:	48 8b 85 38 ff ff ff 	mov    -0xc8(%rbp),%rax
  1039d1:	0f b6 00             	movzbl (%rax),%eax
  1039d4:	84 c0                	test   %al,%al
  1039d6:	0f 84 81 08 00 00    	je     10425d <snprintf+0xb1b>
  1039dc:	48 8b 85 48 ff ff ff 	mov    -0xb8(%rbp),%rax
  1039e3:	48 83 c0 01          	add    $0x1,%rax
  1039e7:	48 3b 85 70 fe ff ff 	cmp    -0x190(%rbp),%rax
  1039ee:	72 a7                	jb     103997 <snprintf+0x255>
  1039f0:	e9 68 08 00 00       	jmp    10425d <snprintf+0xb1b>
  1039f5:	48 8b 85 68 fe ff ff 	mov    -0x198(%rbp),%rax
  1039fc:	0f b6 00             	movzbl (%rax),%eax
  1039ff:	3c 64                	cmp    $0x64,%al
  103a01:	0f 85 03 02 00 00    	jne    103c0a <snprintf+0x4c8>
  103a07:	8b 85 d0 fe ff ff    	mov    -0x130(%rbp),%eax
  103a0d:	83 f8 2f             	cmp    $0x2f,%eax
  103a10:	77 23                	ja     103a35 <snprintf+0x2f3>
  103a12:	48 8b 85 e0 fe ff ff 	mov    -0x120(%rbp),%rax
  103a19:	8b 95 d0 fe ff ff    	mov    -0x130(%rbp),%edx
  103a1f:	89 d2                	mov    %edx,%edx
  103a21:	48 01 d0             	add    %rdx,%rax
  103a24:	8b 95 d0 fe ff ff    	mov    -0x130(%rbp),%edx
  103a2a:	83 c2 08             	add    $0x8,%edx
  103a2d:	89 95 d0 fe ff ff    	mov    %edx,-0x130(%rbp)
  103a33:	eb 12                	jmp    103a47 <snprintf+0x305>
  103a35:	48 8b 85 d8 fe ff ff 	mov    -0x128(%rbp),%rax
  103a3c:	48 8d 50 08          	lea    0x8(%rax),%rdx
  103a40:	48 89 95 d8 fe ff ff 	mov    %rdx,-0x128(%rbp)
  103a47:	8b 00                	mov    (%rax),%eax
  103a49:	89 85 ec fe ff ff    	mov    %eax,-0x114(%rbp)
  103a4f:	c7 85 2c ff ff ff 00 	movl   $0x0,-0xd4(%rbp)
  103a56:	00 00 00 
  103a59:	c7 85 28 ff ff ff 00 	movl   $0x0,-0xd8(%rbp)
  103a60:	00 00 00 
  103a63:	8b 85 ec fe ff ff    	mov    -0x114(%rbp),%eax
  103a69:	89 85 24 ff ff ff    	mov    %eax,-0xdc(%rbp)
  103a6f:	83 bd ec fe ff ff 00 	cmpl   $0x0,-0x114(%rbp)
  103a76:	79 18                	jns    103a90 <snprintf+0x34e>
  103a78:	c7 85 28 ff ff ff 01 	movl   $0x1,-0xd8(%rbp)
  103a7f:	00 00 00 
  103a82:	8b 85 ec fe ff ff    	mov    -0x114(%rbp),%eax
  103a88:	f7 d8                	neg    %eax
  103a8a:	89 85 24 ff ff ff    	mov    %eax,-0xdc(%rbp)
  103a90:	8b 8d 24 ff ff ff    	mov    -0xdc(%rbp),%ecx
  103a96:	89 ca                	mov    %ecx,%edx
  103a98:	b8 cd cc cc cc       	mov    $0xcccccccd,%eax
  103a9d:	48 0f af c2          	imul   %rdx,%rax
  103aa1:	48 c1 e8 20          	shr    $0x20,%rax
  103aa5:	89 c2                	mov    %eax,%edx
  103aa7:	c1 ea 03             	shr    $0x3,%edx
  103aaa:	89 d0                	mov    %edx,%eax
  103aac:	c1 e0 02             	shl    $0x2,%eax
  103aaf:	01 d0                	add    %edx,%eax
  103ab1:	01 c0                	add    %eax,%eax
  103ab3:	29 c1                	sub    %eax,%ecx
  103ab5:	89 ca                	mov    %ecx,%edx
  103ab7:	89 d0                	mov    %edx,%eax
  103ab9:	8d 48 30             	lea    0x30(%rax),%ecx
  103abc:	8b 85 2c ff ff ff    	mov    -0xd4(%rbp),%eax
  103ac2:	8d 50 01             	lea    0x1(%rax),%edx
  103ac5:	89 95 2c ff ff ff    	mov    %edx,-0xd4(%rbp)
  103acb:	89 ca                	mov    %ecx,%edx
  103acd:	48 98                	cltq
  103acf:	88 94 05 c0 fe ff ff 	mov    %dl,-0x140(%rbp,%rax,1)
  103ad6:	8b 85 24 ff ff ff    	mov    -0xdc(%rbp),%eax
  103adc:	89 c2                	mov    %eax,%edx
  103ade:	b8 cd cc cc cc       	mov    $0xcccccccd,%eax
  103ae3:	48 0f af c2          	imul   %rdx,%rax
  103ae7:	48 c1 e8 20          	shr    $0x20,%rax
  103aeb:	c1 e8 03             	shr    $0x3,%eax
  103aee:	89 85 24 ff ff ff    	mov    %eax,-0xdc(%rbp)
  103af4:	83 bd 24 ff ff ff 00 	cmpl   $0x0,-0xdc(%rbp)
  103afb:	74 09                	je     103b06 <snprintf+0x3c4>
  103afd:	83 bd 2c ff ff ff 0e 	cmpl   $0xe,-0xd4(%rbp)
  103b04:	7e 8a                	jle    103a90 <snprintf+0x34e>
  103b06:	83 bd 28 ff ff ff 00 	cmpl   $0x0,-0xd8(%rbp)
  103b0d:	74 2d                	je     103b3c <snprintf+0x3fa>
  103b0f:	48 8b 85 48 ff ff ff 	mov    -0xb8(%rbp),%rax
  103b16:	48 83 c0 01          	add    $0x1,%rax
  103b1a:	48 3b 85 70 fe ff ff 	cmp    -0x190(%rbp),%rax
  103b21:	73 19                	jae    103b3c <snprintf+0x3fa>
  103b23:	8b 85 2c ff ff ff    	mov    -0xd4(%rbp),%eax
  103b29:	8d 50 01             	lea    0x1(%rax),%edx
  103b2c:	89 95 2c ff ff ff    	mov    %edx,-0xd4(%rbp)
  103b32:	48 98                	cltq
  103b34:	c6 84 05 c0 fe ff ff 	movb   $0x2d,-0x140(%rbp,%rax,1)
  103b3b:	2d 
  103b3c:	8b 85 44 ff ff ff    	mov    -0xbc(%rbp),%eax
  103b42:	2b 85 2c ff ff ff    	sub    -0xd4(%rbp),%eax
  103b48:	89 85 20 ff ff ff    	mov    %eax,-0xe0(%rbp)
  103b4e:	eb 33                	jmp    103b83 <snprintf+0x441>
  103b50:	83 bd 40 ff ff ff 00 	cmpl   $0x0,-0xc0(%rbp)
  103b57:	74 07                	je     103b60 <snprintf+0x41e>
  103b59:	b9 30 00 00 00       	mov    $0x30,%ecx
  103b5e:	eb 05                	jmp    103b65 <snprintf+0x423>
  103b60:	b9 20 00 00 00       	mov    $0x20,%ecx
  103b65:	48 8b 85 48 ff ff ff 	mov    -0xb8(%rbp),%rax
  103b6c:	48 8d 50 01          	lea    0x1(%rax),%rdx
  103b70:	48 89 95 48 ff ff ff 	mov    %rdx,-0xb8(%rbp)
  103b77:	48 8b 95 78 fe ff ff 	mov    -0x188(%rbp),%rdx
  103b7e:	48 01 d0             	add    %rdx,%rax
  103b81:	88 08                	mov    %cl,(%rax)
  103b83:	8b 85 20 ff ff ff    	mov    -0xe0(%rbp),%eax
  103b89:	8d 50 ff             	lea    -0x1(%rax),%edx
  103b8c:	89 95 20 ff ff ff    	mov    %edx,-0xe0(%rbp)
  103b92:	85 c0                	test   %eax,%eax
  103b94:	7e 44                	jle    103bda <snprintf+0x498>
  103b96:	48 8b 85 48 ff ff ff 	mov    -0xb8(%rbp),%rax
  103b9d:	48 83 c0 01          	add    $0x1,%rax
  103ba1:	48 3b 85 70 fe ff ff 	cmp    -0x190(%rbp),%rax
  103ba8:	72 a6                	jb     103b50 <snprintf+0x40e>
  103baa:	eb 2e                	jmp    103bda <snprintf+0x498>
  103bac:	48 8b 85 48 ff ff ff 	mov    -0xb8(%rbp),%rax
  103bb3:	48 8d 50 01          	lea    0x1(%rax),%rdx
  103bb7:	48 89 95 48 ff ff ff 	mov    %rdx,-0xb8(%rbp)
  103bbe:	48 8b 95 78 fe ff ff 	mov    -0x188(%rbp),%rdx
  103bc5:	48 01 c2             	add    %rax,%rdx
  103bc8:	8b 85 2c ff ff ff    	mov    -0xd4(%rbp),%eax
  103bce:	48 98                	cltq
  103bd0:	0f b6 84 05 c0 fe ff 	movzbl -0x140(%rbp,%rax,1),%eax
  103bd7:	ff 
  103bd8:	88 02                	mov    %al,(%rdx)
  103bda:	8b 85 2c ff ff ff    	mov    -0xd4(%rbp),%eax
  103be0:	8d 50 ff             	lea    -0x1(%rax),%edx
  103be3:	89 95 2c ff ff ff    	mov    %edx,-0xd4(%rbp)
  103be9:	85 c0                	test   %eax,%eax
  103beb:	0f 84 6c 06 00 00    	je     10425d <snprintf+0xb1b>
  103bf1:	48 8b 85 48 ff ff ff 	mov    -0xb8(%rbp),%rax
  103bf8:	48 83 c0 01          	add    $0x1,%rax
  103bfc:	48 3b 85 70 fe ff ff 	cmp    -0x190(%rbp),%rax
  103c03:	72 a7                	jb     103bac <snprintf+0x46a>
  103c05:	e9 53 06 00 00       	jmp    10425d <snprintf+0xb1b>
  103c0a:	48 8b 85 68 fe ff ff 	mov    -0x198(%rbp),%rax
  103c11:	0f b6 00             	movzbl (%rax),%eax
  103c14:	3c 75                	cmp    $0x75,%al
  103c16:	0f 85 96 01 00 00    	jne    103db2 <snprintf+0x670>
  103c1c:	8b 85 d0 fe ff ff    	mov    -0x130(%rbp),%eax
  103c22:	83 f8 2f             	cmp    $0x2f,%eax
  103c25:	77 23                	ja     103c4a <snprintf+0x508>
  103c27:	48 8b 85 e0 fe ff ff 	mov    -0x120(%rbp),%rax
  103c2e:	8b 95 d0 fe ff ff    	mov    -0x130(%rbp),%edx
  103c34:	89 d2                	mov    %edx,%edx
  103c36:	48 01 d0             	add    %rdx,%rax
  103c39:	8b 95 d0 fe ff ff    	mov    -0x130(%rbp),%edx
  103c3f:	83 c2 08             	add    $0x8,%edx
  103c42:	89 95 d0 fe ff ff    	mov    %edx,-0x130(%rbp)
  103c48:	eb 12                	jmp    103c5c <snprintf+0x51a>
  103c4a:	48 8b 85 d8 fe ff ff 	mov    -0x128(%rbp),%rax
  103c51:	48 8d 50 08          	lea    0x8(%rax),%rdx
  103c55:	48 89 95 d8 fe ff ff 	mov    %rdx,-0x128(%rbp)
  103c5c:	8b 00                	mov    (%rax),%eax
  103c5e:	89 85 1c ff ff ff    	mov    %eax,-0xe4(%rbp)
  103c64:	c7 85 18 ff ff ff 00 	movl   $0x0,-0xe8(%rbp)
  103c6b:	00 00 00 
  103c6e:	8b 8d 1c ff ff ff    	mov    -0xe4(%rbp),%ecx
  103c74:	89 ca                	mov    %ecx,%edx
  103c76:	b8 cd cc cc cc       	mov    $0xcccccccd,%eax
  103c7b:	48 0f af c2          	imul   %rdx,%rax
  103c7f:	48 c1 e8 20          	shr    $0x20,%rax
  103c83:	89 c2                	mov    %eax,%edx
  103c85:	c1 ea 03             	shr    $0x3,%edx
  103c88:	89 d0                	mov    %edx,%eax
  103c8a:	c1 e0 02             	shl    $0x2,%eax
  103c8d:	01 d0                	add    %edx,%eax
  103c8f:	01 c0                	add    %eax,%eax
  103c91:	29 c1                	sub    %eax,%ecx
  103c93:	89 ca                	mov    %ecx,%edx
  103c95:	89 d0                	mov    %edx,%eax
  103c97:	8d 48 30             	lea    0x30(%rax),%ecx
  103c9a:	8b 85 18 ff ff ff    	mov    -0xe8(%rbp),%eax
  103ca0:	8d 50 01             	lea    0x1(%rax),%edx
  103ca3:	89 95 18 ff ff ff    	mov    %edx,-0xe8(%rbp)
  103ca9:	89 ca                	mov    %ecx,%edx
  103cab:	48 98                	cltq
  103cad:	88 94 05 b0 fe ff ff 	mov    %dl,-0x150(%rbp,%rax,1)
  103cb4:	8b 85 1c ff ff ff    	mov    -0xe4(%rbp),%eax
  103cba:	89 c2                	mov    %eax,%edx
  103cbc:	b8 cd cc cc cc       	mov    $0xcccccccd,%eax
  103cc1:	48 0f af c2          	imul   %rdx,%rax
  103cc5:	48 c1 e8 20          	shr    $0x20,%rax
  103cc9:	c1 e8 03             	shr    $0x3,%eax
  103ccc:	89 85 1c ff ff ff    	mov    %eax,-0xe4(%rbp)
  103cd2:	83 bd 1c ff ff ff 00 	cmpl   $0x0,-0xe4(%rbp)
  103cd9:	74 09                	je     103ce4 <snprintf+0x5a2>
  103cdb:	83 bd 18 ff ff ff 0e 	cmpl   $0xe,-0xe8(%rbp)
  103ce2:	7e 8a                	jle    103c6e <snprintf+0x52c>
  103ce4:	8b 85 44 ff ff ff    	mov    -0xbc(%rbp),%eax
  103cea:	2b 85 18 ff ff ff    	sub    -0xe8(%rbp),%eax
  103cf0:	89 85 14 ff ff ff    	mov    %eax,-0xec(%rbp)
  103cf6:	eb 33                	jmp    103d2b <snprintf+0x5e9>
  103cf8:	83 bd 40 ff ff ff 00 	cmpl   $0x0,-0xc0(%rbp)
  103cff:	74 07                	je     103d08 <snprintf+0x5c6>
  103d01:	b9 30 00 00 00       	mov    $0x30,%ecx
  103d06:	eb 05                	jmp    103d0d <snprintf+0x5cb>
  103d08:	b9 20 00 00 00       	mov    $0x20,%ecx
  103d0d:	48 8b 85 48 ff ff ff 	mov    -0xb8(%rbp),%rax
  103d14:	48 8d 50 01          	lea    0x1(%rax),%rdx
  103d18:	48 89 95 48 ff ff ff 	mov    %rdx,-0xb8(%rbp)
  103d1f:	48 8b 95 78 fe ff ff 	mov    -0x188(%rbp),%rdx
  103d26:	48 01 d0             	add    %rdx,%rax
  103d29:	88 08                	mov    %cl,(%rax)
  103d2b:	8b 85 14 ff ff ff    	mov    -0xec(%rbp),%eax
  103d31:	8d 50 ff             	lea    -0x1(%rax),%edx
  103d34:	89 95 14 ff ff ff    	mov    %edx,-0xec(%rbp)
  103d3a:	85 c0                	test   %eax,%eax
  103d3c:	7e 44                	jle    103d82 <snprintf+0x640>
  103d3e:	48 8b 85 48 ff ff ff 	mov    -0xb8(%rbp),%rax
  103d45:	48 83 c0 01          	add    $0x1,%rax
  103d49:	48 3b 85 70 fe ff ff 	cmp    -0x190(%rbp),%rax
  103d50:	72 a6                	jb     103cf8 <snprintf+0x5b6>
  103d52:	eb 2e                	jmp    103d82 <snprintf+0x640>
  103d54:	48 8b 85 48 ff ff ff 	mov    -0xb8(%rbp),%rax
  103d5b:	48 8d 50 01          	lea    0x1(%rax),%rdx
  103d5f:	48 89 95 48 ff ff ff 	mov    %rdx,-0xb8(%rbp)
  103d66:	48 8b 95 78 fe ff ff 	mov    -0x188(%rbp),%rdx
  103d6d:	48 01 c2             	add    %rax,%rdx
  103d70:	8b 85 18 ff ff ff    	mov    -0xe8(%rbp),%eax
  103d76:	48 98                	cltq
  103d78:	0f b6 84 05 b0 fe ff 	movzbl -0x150(%rbp,%rax,1),%eax
  103d7f:	ff 
  103d80:	88 02                	mov    %al,(%rdx)
  103d82:	8b 85 18 ff ff ff    	mov    -0xe8(%rbp),%eax
  103d88:	8d 50 ff             	lea    -0x1(%rax),%edx
  103d8b:	89 95 18 ff ff ff    	mov    %edx,-0xe8(%rbp)
  103d91:	85 c0                	test   %eax,%eax
  103d93:	0f 84 c4 04 00 00    	je     10425d <snprintf+0xb1b>
  103d99:	48 8b 85 48 ff ff ff 	mov    -0xb8(%rbp),%rax
  103da0:	48 83 c0 01          	add    $0x1,%rax
  103da4:	48 3b 85 70 fe ff ff 	cmp    -0x190(%rbp),%rax
  103dab:	72 a7                	jb     103d54 <snprintf+0x612>
  103dad:	e9 ab 04 00 00       	jmp    10425d <snprintf+0xb1b>
  103db2:	48 8b 85 68 fe ff ff 	mov    -0x198(%rbp),%rax
  103db9:	0f b6 00             	movzbl (%rax),%eax
  103dbc:	3c 78                	cmp    $0x78,%al
  103dbe:	74 12                	je     103dd2 <snprintf+0x690>
  103dc0:	48 8b 85 68 fe ff ff 	mov    -0x198(%rbp),%rax
  103dc7:	0f b6 00             	movzbl (%rax),%eax
  103dca:	3c 58                	cmp    $0x58,%al
  103dcc:	0f 85 9c 01 00 00    	jne    103f6e <snprintf+0x82c>
  103dd2:	8b 85 d0 fe ff ff    	mov    -0x130(%rbp),%eax
  103dd8:	83 f8 2f             	cmp    $0x2f,%eax
  103ddb:	77 23                	ja     103e00 <snprintf+0x6be>
  103ddd:	48 8b 85 e0 fe ff ff 	mov    -0x120(%rbp),%rax
  103de4:	8b 95 d0 fe ff ff    	mov    -0x130(%rbp),%edx
  103dea:	89 d2                	mov    %edx,%edx
  103dec:	48 01 d0             	add    %rdx,%rax
  103def:	8b 95 d0 fe ff ff    	mov    -0x130(%rbp),%edx
  103df5:	83 c2 08             	add    $0x8,%edx
  103df8:	89 95 d0 fe ff ff    	mov    %edx,-0x130(%rbp)
  103dfe:	eb 12                	jmp    103e12 <snprintf+0x6d0>
  103e00:	48 8b 85 d8 fe ff ff 	mov    -0x128(%rbp),%rax
  103e07:	48 8d 50 08          	lea    0x8(%rax),%rdx
  103e0b:	48 89 95 d8 fe ff ff 	mov    %rdx,-0x128(%rbp)
  103e12:	8b 00                	mov    (%rax),%eax
  103e14:	89 85 10 ff ff ff    	mov    %eax,-0xf0(%rbp)
  103e1a:	c7 85 0c ff ff ff 00 	movl   $0x0,-0xf4(%rbp)
  103e21:	00 00 00 
  103e24:	8b 85 10 ff ff ff    	mov    -0xf0(%rbp),%eax
  103e2a:	83 e0 0f             	and    $0xf,%eax
  103e2d:	89 85 f0 fe ff ff    	mov    %eax,-0x110(%rbp)
  103e33:	83 bd f0 fe ff ff 09 	cmpl   $0x9,-0x110(%rbp)
  103e3a:	7f 0d                	jg     103e49 <snprintf+0x707>
  103e3c:	8b 85 f0 fe ff ff    	mov    -0x110(%rbp),%eax
  103e42:	83 c0 30             	add    $0x30,%eax
  103e45:	89 c2                	mov    %eax,%edx
  103e47:	eb 26                	jmp    103e6f <snprintf+0x72d>
  103e49:	48 8b 85 68 fe ff ff 	mov    -0x198(%rbp),%rax
  103e50:	0f b6 00             	movzbl (%rax),%eax
  103e53:	3c 58                	cmp    $0x58,%al
  103e55:	75 0d                	jne    103e64 <snprintf+0x722>
  103e57:	8b 85 f0 fe ff ff    	mov    -0x110(%rbp),%eax
  103e5d:	83 c0 37             	add    $0x37,%eax
  103e60:	89 c2                	mov    %eax,%edx
  103e62:	eb 0b                	jmp    103e6f <snprintf+0x72d>
  103e64:	8b 85 f0 fe ff ff    	mov    -0x110(%rbp),%eax
  103e6a:	83 c0 57             	add    $0x57,%eax
  103e6d:	89 c2                	mov    %eax,%edx
  103e6f:	8b 85 0c ff ff ff    	mov    -0xf4(%rbp),%eax
  103e75:	8d 48 01             	lea    0x1(%rax),%ecx
  103e78:	89 8d 0c ff ff ff    	mov    %ecx,-0xf4(%rbp)
  103e7e:	48 98                	cltq
  103e80:	88 94 05 a0 fe ff ff 	mov    %dl,-0x160(%rbp,%rax,1)
  103e87:	c1 ad 10 ff ff ff 04 	shrl   $0x4,-0xf0(%rbp)
  103e8e:	83 bd 10 ff ff ff 00 	cmpl   $0x0,-0xf0(%rbp)
  103e95:	74 09                	je     103ea0 <snprintf+0x75e>
  103e97:	83 bd 0c ff ff ff 0e 	cmpl   $0xe,-0xf4(%rbp)
  103e9e:	7e 84                	jle    103e24 <snprintf+0x6e2>
  103ea0:	8b 85 44 ff ff ff    	mov    -0xbc(%rbp),%eax
  103ea6:	2b 85 0c ff ff ff    	sub    -0xf4(%rbp),%eax
  103eac:	89 85 08 ff ff ff    	mov    %eax,-0xf8(%rbp)
  103eb2:	eb 33                	jmp    103ee7 <snprintf+0x7a5>
  103eb4:	83 bd 40 ff ff ff 00 	cmpl   $0x0,-0xc0(%rbp)
  103ebb:	74 07                	je     103ec4 <snprintf+0x782>
  103ebd:	b9 30 00 00 00       	mov    $0x30,%ecx
  103ec2:	eb 05                	jmp    103ec9 <snprintf+0x787>
  103ec4:	b9 20 00 00 00       	mov    $0x20,%ecx
  103ec9:	48 8b 85 48 ff ff ff 	mov    -0xb8(%rbp),%rax
  103ed0:	48 8d 50 01          	lea    0x1(%rax),%rdx
  103ed4:	48 89 95 48 ff ff ff 	mov    %rdx,-0xb8(%rbp)
  103edb:	48 8b 95 78 fe ff ff 	mov    -0x188(%rbp),%rdx
  103ee2:	48 01 d0             	add    %rdx,%rax
  103ee5:	88 08                	mov    %cl,(%rax)
  103ee7:	8b 85 08 ff ff ff    	mov    -0xf8(%rbp),%eax
  103eed:	8d 50 ff             	lea    -0x1(%rax),%edx
  103ef0:	89 95 08 ff ff ff    	mov    %edx,-0xf8(%rbp)
  103ef6:	85 c0                	test   %eax,%eax
  103ef8:	7e 44                	jle    103f3e <snprintf+0x7fc>
  103efa:	48 8b 85 48 ff ff ff 	mov    -0xb8(%rbp),%rax
  103f01:	48 83 c0 01          	add    $0x1,%rax
  103f05:	48 3b 85 70 fe ff ff 	cmp    -0x190(%rbp),%rax
  103f0c:	72 a6                	jb     103eb4 <snprintf+0x772>
  103f0e:	eb 2e                	jmp    103f3e <snprintf+0x7fc>
  103f10:	48 8b 85 48 ff ff ff 	mov    -0xb8(%rbp),%rax
  103f17:	48 8d 50 01          	lea    0x1(%rax),%rdx
  103f1b:	48 89 95 48 ff ff ff 	mov    %rdx,-0xb8(%rbp)
  103f22:	48 8b 95 78 fe ff ff 	mov    -0x188(%rbp),%rdx
  103f29:	48 01 c2             	add    %rax,%rdx
  103f2c:	8b 85 0c ff ff ff    	mov    -0xf4(%rbp),%eax
  103f32:	48 98                	cltq
  103f34:	0f b6 84 05 a0 fe ff 	movzbl -0x160(%rbp,%rax,1),%eax
  103f3b:	ff 
  103f3c:	88 02                	mov    %al,(%rdx)
  103f3e:	8b 85 0c ff ff ff    	mov    -0xf4(%rbp),%eax
  103f44:	8d 50 ff             	lea    -0x1(%rax),%edx
  103f47:	89 95 0c ff ff ff    	mov    %edx,-0xf4(%rbp)
  103f4d:	85 c0                	test   %eax,%eax
  103f4f:	0f 84 07 03 00 00    	je     10425c <snprintf+0xb1a>
  103f55:	48 8b 85 48 ff ff ff 	mov    -0xb8(%rbp),%rax
  103f5c:	48 83 c0 01          	add    $0x1,%rax
  103f60:	48 3b 85 70 fe ff ff 	cmp    -0x190(%rbp),%rax
  103f67:	72 a7                	jb     103f10 <snprintf+0x7ce>
  103f69:	e9 ee 02 00 00       	jmp    10425c <snprintf+0xb1a>
  103f6e:	48 8b 85 68 fe ff ff 	mov    -0x198(%rbp),%rax
  103f75:	0f b6 00             	movzbl (%rax),%eax
  103f78:	3c 70                	cmp    $0x70,%al
  103f7a:	0f 85 db 01 00 00    	jne    10415b <snprintf+0xa19>
  103f80:	8b 85 d0 fe ff ff    	mov    -0x130(%rbp),%eax
  103f86:	83 f8 2f             	cmp    $0x2f,%eax
  103f89:	77 23                	ja     103fae <snprintf+0x86c>
  103f8b:	48 8b 85 e0 fe ff ff 	mov    -0x120(%rbp),%rax
  103f92:	8b 95 d0 fe ff ff    	mov    -0x130(%rbp),%edx
  103f98:	89 d2                	mov    %edx,%edx
  103f9a:	48 01 d0             	add    %rdx,%rax
  103f9d:	8b 95 d0 fe ff ff    	mov    -0x130(%rbp),%edx
  103fa3:	83 c2 08             	add    $0x8,%edx
  103fa6:	89 95 d0 fe ff ff    	mov    %edx,-0x130(%rbp)
  103fac:	eb 12                	jmp    103fc0 <snprintf+0x87e>
  103fae:	48 8b 85 d8 fe ff ff 	mov    -0x128(%rbp),%rax
  103fb5:	48 8d 50 08          	lea    0x8(%rax),%rdx
  103fb9:	48 89 95 d8 fe ff ff 	mov    %rdx,-0x128(%rbp)
  103fc0:	48 8b 00             	mov    (%rax),%rax
  103fc3:	48 89 85 00 ff ff ff 	mov    %rax,-0x100(%rbp)
  103fca:	c7 85 fc fe ff ff 00 	movl   $0x0,-0x104(%rbp)
  103fd1:	00 00 00 
  103fd4:	48 8b 85 48 ff ff ff 	mov    -0xb8(%rbp),%rax
  103fdb:	48 8d 50 01          	lea    0x1(%rax),%rdx
  103fdf:	48 89 95 48 ff ff ff 	mov    %rdx,-0xb8(%rbp)
  103fe6:	48 8b 95 78 fe ff ff 	mov    -0x188(%rbp),%rdx
  103fed:	48 01 d0             	add    %rdx,%rax
  103ff0:	c6 00 30             	movb   $0x30,(%rax)
  103ff3:	48 8b 85 48 ff ff ff 	mov    -0xb8(%rbp),%rax
  103ffa:	48 83 c0 01          	add    $0x1,%rax
  103ffe:	48 3b 85 70 fe ff ff 	cmp    -0x190(%rbp),%rax
  104005:	73 1f                	jae    104026 <snprintf+0x8e4>
  104007:	48 8b 85 48 ff ff ff 	mov    -0xb8(%rbp),%rax
  10400e:	48 8d 50 01          	lea    0x1(%rax),%rdx
  104012:	48 89 95 48 ff ff ff 	mov    %rdx,-0xb8(%rbp)
  104019:	48 8b 95 78 fe ff ff 	mov    -0x188(%rbp),%rdx
  104020:	48 01 d0             	add    %rdx,%rax
  104023:	c6 00 78             	movb   $0x78,(%rax)
  104026:	48 8b 85 00 ff ff ff 	mov    -0x100(%rbp),%rax
  10402d:	83 e0 0f             	and    $0xf,%eax
  104030:	89 85 f4 fe ff ff    	mov    %eax,-0x10c(%rbp)
  104036:	83 bd f4 fe ff ff 09 	cmpl   $0x9,-0x10c(%rbp)
  10403d:	7f 0d                	jg     10404c <snprintf+0x90a>
  10403f:	8b 85 f4 fe ff ff    	mov    -0x10c(%rbp),%eax
  104045:	83 c0 30             	add    $0x30,%eax
  104048:	89 c1                	mov    %eax,%ecx
  10404a:	eb 0b                	jmp    104057 <snprintf+0x915>
  10404c:	8b 85 f4 fe ff ff    	mov    -0x10c(%rbp),%eax
  104052:	83 c0 57             	add    $0x57,%eax
  104055:	89 c1                	mov    %eax,%ecx
  104057:	8b 85 fc fe ff ff    	mov    -0x104(%rbp),%eax
  10405d:	8d 50 01             	lea    0x1(%rax),%edx
  104060:	89 95 fc fe ff ff    	mov    %edx,-0x104(%rbp)
  104066:	48 98                	cltq
  104068:	88 8c 05 80 fe ff ff 	mov    %cl,-0x180(%rbp,%rax,1)
  10406f:	48 c1 ad 00 ff ff ff 	shrq   $0x4,-0x100(%rbp)
  104076:	04 
  104077:	48 83 bd 00 ff ff ff 	cmpq   $0x0,-0x100(%rbp)
  10407e:	00 
  10407f:	74 09                	je     10408a <snprintf+0x948>
  104081:	83 bd fc fe ff ff 0f 	cmpl   $0xf,-0x104(%rbp)
  104088:	7e 9c                	jle    104026 <snprintf+0x8e4>
  10408a:	8b 85 44 ff ff ff    	mov    -0xbc(%rbp),%eax
  104090:	2b 85 fc fe ff ff    	sub    -0x104(%rbp),%eax
  104096:	83 e8 02             	sub    $0x2,%eax
  104099:	89 85 f8 fe ff ff    	mov    %eax,-0x108(%rbp)
  10409f:	eb 33                	jmp    1040d4 <snprintf+0x992>
  1040a1:	83 bd 40 ff ff ff 00 	cmpl   $0x0,-0xc0(%rbp)
  1040a8:	74 07                	je     1040b1 <snprintf+0x96f>
  1040aa:	b9 30 00 00 00       	mov    $0x30,%ecx
  1040af:	eb 05                	jmp    1040b6 <snprintf+0x974>
  1040b1:	b9 20 00 00 00       	mov    $0x20,%ecx
  1040b6:	48 8b 85 48 ff ff ff 	mov    -0xb8(%rbp),%rax
  1040bd:	48 8d 50 01          	lea    0x1(%rax),%rdx
  1040c1:	48 89 95 48 ff ff ff 	mov    %rdx,-0xb8(%rbp)
  1040c8:	48 8b 95 78 fe ff ff 	mov    -0x188(%rbp),%rdx
  1040cf:	48 01 d0             	add    %rdx,%rax
  1040d2:	88 08                	mov    %cl,(%rax)
  1040d4:	8b 85 f8 fe ff ff    	mov    -0x108(%rbp),%eax
  1040da:	8d 50 ff             	lea    -0x1(%rax),%edx
  1040dd:	89 95 f8 fe ff ff    	mov    %edx,-0x108(%rbp)
  1040e3:	85 c0                	test   %eax,%eax
  1040e5:	7e 44                	jle    10412b <snprintf+0x9e9>
  1040e7:	48 8b 85 48 ff ff ff 	mov    -0xb8(%rbp),%rax
  1040ee:	48 83 c0 01          	add    $0x1,%rax
  1040f2:	48 3b 85 70 fe ff ff 	cmp    -0x190(%rbp),%rax
  1040f9:	72 a6                	jb     1040a1 <snprintf+0x95f>
  1040fb:	eb 2e                	jmp    10412b <snprintf+0x9e9>
  1040fd:	48 8b 85 48 ff ff ff 	mov    -0xb8(%rbp),%rax
  104104:	48 8d 50 01          	lea    0x1(%rax),%rdx
  104108:	48 89 95 48 ff ff ff 	mov    %rdx,-0xb8(%rbp)
  10410f:	48 8b 95 78 fe ff ff 	mov    -0x188(%rbp),%rdx
  104116:	48 01 c2             	add    %rax,%rdx
  104119:	8b 85 fc fe ff ff    	mov    -0x104(%rbp),%eax
  10411f:	48 98                	cltq
  104121:	0f b6 84 05 80 fe ff 	movzbl -0x180(%rbp,%rax,1),%eax
  104128:	ff 
  104129:	88 02                	mov    %al,(%rdx)
  10412b:	8b 85 fc fe ff ff    	mov    -0x104(%rbp),%eax
  104131:	8d 50 ff             	lea    -0x1(%rax),%edx
  104134:	89 95 fc fe ff ff    	mov    %edx,-0x104(%rbp)
  10413a:	85 c0                	test   %eax,%eax
  10413c:	0f 84 1b 01 00 00    	je     10425d <snprintf+0xb1b>
  104142:	48 8b 85 48 ff ff ff 	mov    -0xb8(%rbp),%rax
  104149:	48 83 c0 01          	add    $0x1,%rax
  10414d:	48 3b 85 70 fe ff ff 	cmp    -0x190(%rbp),%rax
  104154:	72 a7                	jb     1040fd <snprintf+0x9bb>
  104156:	e9 02 01 00 00       	jmp    10425d <snprintf+0xb1b>
  10415b:	48 8b 85 68 fe ff ff 	mov    -0x198(%rbp),%rax
  104162:	0f b6 00             	movzbl (%rax),%eax
  104165:	3c 63                	cmp    $0x63,%al
  104167:	75 67                	jne    1041d0 <snprintf+0xa8e>
  104169:	8b 85 d0 fe ff ff    	mov    -0x130(%rbp),%eax
  10416f:	83 f8 2f             	cmp    $0x2f,%eax
  104172:	77 23                	ja     104197 <snprintf+0xa55>
  104174:	48 8b 85 e0 fe ff ff 	mov    -0x120(%rbp),%rax
  10417b:	8b 95 d0 fe ff ff    	mov    -0x130(%rbp),%edx
  104181:	89 d2                	mov    %edx,%edx
  104183:	48 01 d0             	add    %rdx,%rax
  104186:	8b 95 d0 fe ff ff    	mov    -0x130(%rbp),%edx
  10418c:	83 c2 08             	add    $0x8,%edx
  10418f:	89 95 d0 fe ff ff    	mov    %edx,-0x130(%rbp)
  104195:	eb 12                	jmp    1041a9 <snprintf+0xa67>
  104197:	48 8b 85 d8 fe ff ff 	mov    -0x128(%rbp),%rax
  10419e:	48 8d 50 08          	lea    0x8(%rax),%rdx
  1041a2:	48 89 95 d8 fe ff ff 	mov    %rdx,-0x128(%rbp)
  1041a9:	8b 08                	mov    (%rax),%ecx
  1041ab:	48 8b 85 48 ff ff ff 	mov    -0xb8(%rbp),%rax
  1041b2:	48 8d 50 01          	lea    0x1(%rax),%rdx
  1041b6:	48 89 95 48 ff ff ff 	mov    %rdx,-0xb8(%rbp)
  1041bd:	48 8b 95 78 fe ff ff 	mov    -0x188(%rbp),%rdx
  1041c4:	48 01 d0             	add    %rdx,%rax
  1041c7:	89 ca                	mov    %ecx,%edx
  1041c9:	88 10                	mov    %dl,(%rax)
  1041cb:	e9 8d 00 00 00       	jmp    10425d <snprintf+0xb1b>
  1041d0:	48 8b 85 68 fe ff ff 	mov    -0x198(%rbp),%rax
  1041d7:	0f b6 00             	movzbl (%rax),%eax
  1041da:	3c 25                	cmp    $0x25,%al
  1041dc:	75 21                	jne    1041ff <snprintf+0xabd>
  1041de:	48 8b 85 48 ff ff ff 	mov    -0xb8(%rbp),%rax
  1041e5:	48 8d 50 01          	lea    0x1(%rax),%rdx
  1041e9:	48 89 95 48 ff ff ff 	mov    %rdx,-0xb8(%rbp)
  1041f0:	48 8b 95 78 fe ff ff 	mov    -0x188(%rbp),%rdx
  1041f7:	48 01 d0             	add    %rdx,%rax
  1041fa:	c6 00 25             	movb   $0x25,(%rax)
  1041fd:	eb 5e                	jmp    10425d <snprintf+0xb1b>
  1041ff:	48 8b 85 48 ff ff ff 	mov    -0xb8(%rbp),%rax
  104206:	48 8d 50 01          	lea    0x1(%rax),%rdx
  10420a:	48 89 95 48 ff ff ff 	mov    %rdx,-0xb8(%rbp)
  104211:	48 8b 95 78 fe ff ff 	mov    -0x188(%rbp),%rdx
  104218:	48 01 d0             	add    %rdx,%rax
  10421b:	c6 00 25             	movb   $0x25,(%rax)
  10421e:	48 8b 85 48 ff ff ff 	mov    -0xb8(%rbp),%rax
  104225:	48 83 c0 01          	add    $0x1,%rax
  104229:	48 3b 85 70 fe ff ff 	cmp    -0x190(%rbp),%rax
  104230:	73 2b                	jae    10425d <snprintf+0xb1b>
  104232:	48 8b 85 48 ff ff ff 	mov    -0xb8(%rbp),%rax
  104239:	48 8d 50 01          	lea    0x1(%rax),%rdx
  10423d:	48 89 95 48 ff ff ff 	mov    %rdx,-0xb8(%rbp)
  104244:	48 8b 95 78 fe ff ff 	mov    -0x188(%rbp),%rdx
  10424b:	48 01 c2             	add    %rax,%rdx
  10424e:	48 8b 85 68 fe ff ff 	mov    -0x198(%rbp),%rax
  104255:	0f b6 00             	movzbl (%rax),%eax
  104258:	88 02                	mov    %al,(%rdx)
  10425a:	eb 01                	jmp    10425d <snprintf+0xb1b>
  10425c:	90                   	nop
  10425d:	48 83 85 68 fe ff ff 	addq   $0x1,-0x198(%rbp)
  104264:	01 
  104265:	48 8b 85 68 fe ff ff 	mov    -0x198(%rbp),%rax
  10426c:	0f b6 00             	movzbl (%rax),%eax
  10426f:	84 c0                	test   %al,%al
  104271:	74 18                	je     10428b <snprintf+0xb49>
  104273:	48 8b 85 48 ff ff ff 	mov    -0xb8(%rbp),%rax
  10427a:	48 83 c0 01          	add    $0x1,%rax
  10427e:	48 3b 85 70 fe ff ff 	cmp    -0x190(%rbp),%rax
  104285:	0f 82 4d f5 ff ff    	jb     1037d8 <snprintf+0x96>
  10428b:	48 8b 95 78 fe ff ff 	mov    -0x188(%rbp),%rdx
  104292:	48 8b 85 48 ff ff ff 	mov    -0xb8(%rbp),%rax
  104299:	48 01 d0             	add    %rdx,%rax
  10429c:	c6 00 00             	movb   $0x0,(%rax)
  10429f:	48 8b 85 48 ff ff ff 	mov    -0xb8(%rbp),%rax
  1042a6:	c9                   	leave
  1042a7:	c3                   	ret

00000000001042a8 <panic>:
  1042a8:	55                   	push   %rbp
  1042a9:	48 89 e5             	mov    %rsp,%rbp
  1042ac:	48 83 ec 10          	sub    $0x10,%rsp
  1042b0:	48 89 7d f8          	mov    %rdi,-0x8(%rbp)
  1042b4:	48 8b 45 f8          	mov    -0x8(%rbp),%rax
  1042b8:	48 89 c6             	mov    %rax,%rsi
  1042bb:	bf 22 51 10 00       	mov    $0x105122,%edi
  1042c0:	b8 00 00 00 00       	mov    $0x0,%eax
  1042c5:	e8 24 cd ff ff       	call   100fee <kprintf>
  1042ca:	fa                   	cli
  1042cb:	f4                   	hlt
  1042cc:	90                   	nop
  1042cd:	c9                   	leave
  1042ce:	c3                   	ret

00000000001042cf <memcpy>:
  1042cf:	55                   	push   %rbp
  1042d0:	48 89 e5             	mov    %rsp,%rbp
  1042d3:	48 83 ec 28          	sub    $0x28,%rsp
  1042d7:	48 89 7d e8          	mov    %rdi,-0x18(%rbp)
  1042db:	48 89 75 e0          	mov    %rsi,-0x20(%rbp)
  1042df:	48 89 55 d8          	mov    %rdx,-0x28(%rbp)
  1042e3:	48 8b 45 e8          	mov    -0x18(%rbp),%rax
  1042e7:	48 89 45 f8          	mov    %rax,-0x8(%rbp)
  1042eb:	48 8b 45 e0          	mov    -0x20(%rbp),%rax
  1042ef:	48 89 45 f0          	mov    %rax,-0x10(%rbp)
  1042f3:	eb 1d                	jmp    104312 <memcpy+0x43>
  1042f5:	48 8b 55 f0          	mov    -0x10(%rbp),%rdx
  1042f9:	48 8d 42 01          	lea    0x1(%rdx),%rax
  1042fd:	48 89 45 f0          	mov    %rax,-0x10(%rbp)
  104301:	48 8b 45 f8          	mov    -0x8(%rbp),%rax
  104305:	48 8d 48 01          	lea    0x1(%rax),%rcx
  104309:	48 89 4d f8          	mov    %rcx,-0x8(%rbp)
  10430d:	0f b6 12             	movzbl (%rdx),%edx
  104310:	88 10                	mov    %dl,(%rax)
  104312:	48 8b 45 d8          	mov    -0x28(%rbp),%rax
  104316:	48 8d 50 ff          	lea    -0x1(%rax),%rdx
  10431a:	48 89 55 d8          	mov    %rdx,-0x28(%rbp)
  10431e:	48 85 c0             	test   %rax,%rax
  104321:	75 d2                	jne    1042f5 <memcpy+0x26>
  104323:	48 8b 45 e8          	mov    -0x18(%rbp),%rax
  104327:	c9                   	leave
  104328:	c3                   	ret

0000000000104329 <memset>:
  104329:	55                   	push   %rbp
  10432a:	48 89 e5             	mov    %rsp,%rbp
  10432d:	48 83 ec 28          	sub    $0x28,%rsp
  104331:	48 89 7d e8          	mov    %rdi,-0x18(%rbp)
  104335:	89 75 e4             	mov    %esi,-0x1c(%rbp)
  104338:	48 89 55 d8          	mov    %rdx,-0x28(%rbp)
  10433c:	48 8b 45 e8          	mov    -0x18(%rbp),%rax
  104340:	48 89 45 f8          	mov    %rax,-0x8(%rbp)
  104344:	eb 11                	jmp    104357 <memset+0x2e>
  104346:	48 8b 45 f8          	mov    -0x8(%rbp),%rax
  10434a:	48 8d 50 01          	lea    0x1(%rax),%rdx
  10434e:	48 89 55 f8          	mov    %rdx,-0x8(%rbp)
  104352:	8b 55 e4             	mov    -0x1c(%rbp),%edx
  104355:	88 10                	mov    %dl,(%rax)
  104357:	48 8b 45 d8          	mov    -0x28(%rbp),%rax
  10435b:	48 8d 50 ff          	lea    -0x1(%rax),%rdx
  10435f:	48 89 55 d8          	mov    %rdx,-0x28(%rbp)
  104363:	48 85 c0             	test   %rax,%rax
  104366:	75 de                	jne    104346 <memset+0x1d>
  104368:	90                   	nop
  104369:	90                   	nop
  10436a:	c9                   	leave
  10436b:	c3                   	ret

000000000010436c <memcmp>:
  10436c:	55                   	push   %rbp
  10436d:	48 89 e5             	mov    %rsp,%rbp
  104370:	48 83 ec 28          	sub    $0x28,%rsp
  104374:	48 89 7d e8          	mov    %rdi,-0x18(%rbp)
  104378:	48 89 75 e0          	mov    %rsi,-0x20(%rbp)
  10437c:	48 89 55 d8          	mov    %rdx,-0x28(%rbp)
  104380:	48 8b 45 e8          	mov    -0x18(%rbp),%rax
  104384:	48 89 45 f8          	mov    %rax,-0x8(%rbp)
  104388:	48 8b 45 e0          	mov    -0x20(%rbp),%rax
  10438c:	48 89 45 f0          	mov    %rax,-0x10(%rbp)
  104390:	eb 3a                	jmp    1043cc <memcmp+0x60>
  104392:	48 8b 45 f8          	mov    -0x8(%rbp),%rax
  104396:	48 8d 50 01          	lea    0x1(%rax),%rdx
  10439a:	48 89 55 f8          	mov    %rdx,-0x8(%rbp)
  10439e:	0f b6 08             	movzbl (%rax),%ecx
  1043a1:	48 8b 45 f0          	mov    -0x10(%rbp),%rax
  1043a5:	48 8d 50 01          	lea    0x1(%rax),%rdx
  1043a9:	48 89 55 f0          	mov    %rdx,-0x10(%rbp)
  1043ad:	0f b6 00             	movzbl (%rax),%eax
  1043b0:	38 c1                	cmp    %al,%cl
  1043b2:	74 18                	je     1043cc <memcmp+0x60>
  1043b4:	48 8b 45 f8          	mov    -0x8(%rbp),%rax
  1043b8:	0f b6 00             	movzbl (%rax),%eax
  1043bb:	0f be d0             	movsbl %al,%edx
  1043be:	48 8b 45 f0          	mov    -0x10(%rbp),%rax
  1043c2:	0f b6 00             	movzbl (%rax),%eax
  1043c5:	0f be c0             	movsbl %al,%eax
  1043c8:	29 c2                	sub    %eax,%edx
  1043ca:	eb 16                	jmp    1043e2 <memcmp+0x76>
  1043cc:	48 8b 45 d8          	mov    -0x28(%rbp),%rax
  1043d0:	48 8d 50 ff          	lea    -0x1(%rax),%rdx
  1043d4:	48 89 55 d8          	mov    %rdx,-0x28(%rbp)
  1043d8:	48 85 c0             	test   %rax,%rax
  1043db:	75 b5                	jne    104392 <memcmp+0x26>
  1043dd:	ba 00 00 00 00       	mov    $0x0,%edx
  1043e2:	89 d0                	mov    %edx,%eax
  1043e4:	c9                   	leave
  1043e5:	c3                   	ret

00000000001043e6 <toupper>:
  1043e6:	55                   	push   %rbp
  1043e7:	48 89 e5             	mov    %rsp,%rbp
  1043ea:	48 83 ec 08          	sub    $0x8,%rsp
  1043ee:	89 7d fc             	mov    %edi,-0x4(%rbp)
  1043f1:	83 7d fc 60          	cmpl   $0x60,-0x4(%rbp)
  1043f5:	7e 0e                	jle    104405 <toupper+0x1f>
  1043f7:	83 7d fc 7a          	cmpl   $0x7a,-0x4(%rbp)
  1043fb:	7f 08                	jg     104405 <toupper+0x1f>
  1043fd:	8b 45 fc             	mov    -0x4(%rbp),%eax
  104400:	83 e8 20             	sub    $0x20,%eax
  104403:	eb 03                	jmp    104408 <toupper+0x22>
  104405:	8b 45 fc             	mov    -0x4(%rbp),%eax
  104408:	c9                   	leave
  104409:	c3                   	ret

000000000010440a <strcmp>:
  10440a:	55                   	push   %rbp
  10440b:	48 89 e5             	mov    %rsp,%rbp
  10440e:	48 83 ec 10          	sub    $0x10,%rsp
  104412:	48 89 7d f8          	mov    %rdi,-0x8(%rbp)
  104416:	48 89 75 f0          	mov    %rsi,-0x10(%rbp)
  10441a:	eb 0a                	jmp    104426 <strcmp+0x1c>
  10441c:	48 83 45 f8 01       	addq   $0x1,-0x8(%rbp)
  104421:	48 83 45 f0 01       	addq   $0x1,-0x10(%rbp)
  104426:	48 8b 45 f8          	mov    -0x8(%rbp),%rax
  10442a:	0f b6 00             	movzbl (%rax),%eax
  10442d:	84 c0                	test   %al,%al
  10442f:	74 12                	je     104443 <strcmp+0x39>
  104431:	48 8b 45 f8          	mov    -0x8(%rbp),%rax
  104435:	0f b6 10             	movzbl (%rax),%edx
  104438:	48 8b 45 f0          	mov    -0x10(%rbp),%rax
  10443c:	0f b6 00             	movzbl (%rax),%eax
  10443f:	38 c2                	cmp    %al,%dl
  104441:	74 d9                	je     10441c <strcmp+0x12>
  104443:	48 8b 45 f8          	mov    -0x8(%rbp),%rax
  104447:	0f b6 00             	movzbl (%rax),%eax
  10444a:	0f be d0             	movsbl %al,%edx
  10444d:	48 8b 45 f0          	mov    -0x10(%rbp),%rax
  104451:	0f b6 00             	movzbl (%rax),%eax
  104454:	0f be c0             	movsbl %al,%eax
  104457:	29 c2                	sub    %eax,%edx
  104459:	89 d0                	mov    %edx,%eax
  10445b:	c9                   	leave
  10445c:	c3                   	ret

000000000010445d <itoa>:
  10445d:	55                   	push   %rbp
  10445e:	48 89 e5             	mov    %rsp,%rbp
  104461:	48 83 ec 18          	sub    $0x18,%rsp
  104465:	89 7d ec             	mov    %edi,-0x14(%rbp)
  104468:	c7 45 fc 0a 00 00 00 	movl   $0xa,-0x4(%rbp)
  10446f:	c7 45 f8 00 00 00 00 	movl   $0x0,-0x8(%rbp)
  104476:	c6 05 0e 15 01 00 00 	movb   $0x0,0x1150e(%rip)        # 11598b <buf.3+0xb>
  10447d:	83 7d ec 00          	cmpl   $0x0,-0x14(%rbp)
  104481:	75 11                	jne    104494 <itoa+0x37>
  104483:	c6 05 00 15 01 00 30 	movb   $0x30,0x11500(%rip)        # 11598a <buf.3+0xa>
  10448a:	b8 8a 59 11 00       	mov    $0x11598a,%eax
  10448f:	e9 a4 00 00 00       	jmp    104538 <itoa+0xdb>
  104494:	83 7d ec 00          	cmpl   $0x0,-0x14(%rbp)
  104498:	79 6c                	jns    104506 <itoa+0xa9>
  10449a:	c7 45 f8 01 00 00 00 	movl   $0x1,-0x8(%rbp)
  1044a1:	f7 5d ec             	negl   -0x14(%rbp)
  1044a4:	eb 60                	jmp    104506 <itoa+0xa9>
  1044a6:	8b 55 ec             	mov    -0x14(%rbp),%edx
  1044a9:	48 63 c2             	movslq %edx,%rax
  1044ac:	48 69 c0 67 66 66 66 	imul   $0x66666667,%rax,%rax
  1044b3:	48 c1 e8 20          	shr    $0x20,%rax
  1044b7:	89 c1                	mov    %eax,%ecx
  1044b9:	c1 f9 02             	sar    $0x2,%ecx
  1044bc:	89 d0                	mov    %edx,%eax
  1044be:	c1 f8 1f             	sar    $0x1f,%eax
  1044c1:	29 c1                	sub    %eax,%ecx
  1044c3:	89 c8                	mov    %ecx,%eax
  1044c5:	c1 e0 02             	shl    $0x2,%eax
  1044c8:	01 c8                	add    %ecx,%eax
  1044ca:	01 c0                	add    %eax,%eax
  1044cc:	89 d1                	mov    %edx,%ecx
  1044ce:	29 c1                	sub    %eax,%ecx
  1044d0:	89 c8                	mov    %ecx,%eax
  1044d2:	8d 48 30             	lea    0x30(%rax),%ecx
  1044d5:	8b 45 fc             	mov    -0x4(%rbp),%eax
  1044d8:	8d 50 ff             	lea    -0x1(%rax),%edx
  1044db:	89 55 fc             	mov    %edx,-0x4(%rbp)
  1044de:	89 ca                	mov    %ecx,%edx
  1044e0:	48 98                	cltq
  1044e2:	88 90 80 59 11 00    	mov    %dl,0x115980(%rax)
  1044e8:	8b 45 ec             	mov    -0x14(%rbp),%eax
  1044eb:	48 63 d0             	movslq %eax,%rdx
  1044ee:	48 69 d2 67 66 66 66 	imul   $0x66666667,%rdx,%rdx
  1044f5:	48 c1 ea 20          	shr    $0x20,%rdx
  1044f9:	89 d1                	mov    %edx,%ecx
  1044fb:	c1 f9 02             	sar    $0x2,%ecx
  1044fe:	99                   	cltd
  1044ff:	89 c8                	mov    %ecx,%eax
  104501:	29 d0                	sub    %edx,%eax
  104503:	89 45 ec             	mov    %eax,-0x14(%rbp)
  104506:	83 7d ec 00          	cmpl   $0x0,-0x14(%rbp)
  10450a:	74 06                	je     104512 <itoa+0xb5>
  10450c:	83 7d fc 00          	cmpl   $0x0,-0x4(%rbp)
  104510:	75 94                	jne    1044a6 <itoa+0x49>
  104512:	83 7d f8 00          	cmpl   $0x0,-0x8(%rbp)
  104516:	74 12                	je     10452a <itoa+0xcd>
  104518:	8b 45 fc             	mov    -0x4(%rbp),%eax
  10451b:	8d 50 ff             	lea    -0x1(%rax),%edx
  10451e:	89 55 fc             	mov    %edx,-0x4(%rbp)
  104521:	48 98                	cltq
  104523:	c6 80 80 59 11 00 2d 	movb   $0x2d,0x115980(%rax)
  10452a:	8b 45 fc             	mov    -0x4(%rbp),%eax
  10452d:	83 c0 01             	add    $0x1,%eax
  104530:	48 98                	cltq
  104532:	48 05 80 59 11 00    	add    $0x115980,%rax
  104538:	c9                   	leave
  104539:	c3                   	ret

000000000010453a <strlen>:
  10453a:	55                   	push   %rbp
  10453b:	48 89 e5             	mov    %rsp,%rbp
  10453e:	48 83 ec 18          	sub    $0x18,%rsp
  104542:	48 89 7d e8          	mov    %rdi,-0x18(%rbp)
  104546:	c7 45 fc 00 00 00 00 	movl   $0x0,-0x4(%rbp)
  10454d:	eb 04                	jmp    104553 <strlen+0x19>
  10454f:	83 45 fc 01          	addl   $0x1,-0x4(%rbp)
  104553:	48 8b 45 e8          	mov    -0x18(%rbp),%rax
  104557:	48 8d 50 01          	lea    0x1(%rax),%rdx
  10455b:	48 89 55 e8          	mov    %rdx,-0x18(%rbp)
  10455f:	0f b6 00             	movzbl (%rax),%eax
  104562:	84 c0                	test   %al,%al
  104564:	75 e9                	jne    10454f <strlen+0x15>
  104566:	8b 45 fc             	mov    -0x4(%rbp),%eax
  104569:	c9                   	leave
  10456a:	c3                   	ret

000000000010456b <strcpy>:
  10456b:	55                   	push   %rbp
  10456c:	48 89 e5             	mov    %rsp,%rbp
  10456f:	48 83 ec 20          	sub    $0x20,%rsp
  104573:	48 89 7d e8          	mov    %rdi,-0x18(%rbp)
  104577:	48 89 75 e0          	mov    %rsi,-0x20(%rbp)
  10457b:	48 8b 45 e8          	mov    -0x18(%rbp),%rax
  10457f:	48 89 45 f8          	mov    %rax,-0x8(%rbp)
  104583:	eb 1d                	jmp    1045a2 <strcpy+0x37>
  104585:	48 8b 55 e0          	mov    -0x20(%rbp),%rdx
  104589:	48 8d 42 01          	lea    0x1(%rdx),%rax
  10458d:	48 89 45 e0          	mov    %rax,-0x20(%rbp)
  104591:	48 8b 45 f8          	mov    -0x8(%rbp),%rax
  104595:	48 8d 48 01          	lea    0x1(%rax),%rcx
  104599:	48 89 4d f8          	mov    %rcx,-0x8(%rbp)
  10459d:	0f b6 12             	movzbl (%rdx),%edx
  1045a0:	88 10                	mov    %dl,(%rax)
  1045a2:	48 8b 45 e0          	mov    -0x20(%rbp),%rax
  1045a6:	0f b6 00             	movzbl (%rax),%eax
  1045a9:	84 c0                	test   %al,%al
  1045ab:	75 d8                	jne    104585 <strcpy+0x1a>
  1045ad:	48 8b 45 f8          	mov    -0x8(%rbp),%rax
  1045b1:	c6 00 00             	movb   $0x0,(%rax)
  1045b4:	48 8b 45 e8          	mov    -0x18(%rbp),%rax
  1045b8:	c9                   	leave
  1045b9:	c3                   	ret

00000000001045ba <strncpy>:
  1045ba:	55                   	push   %rbp
  1045bb:	48 89 e5             	mov    %rsp,%rbp
  1045be:	48 83 ec 28          	sub    $0x28,%rsp
  1045c2:	48 89 7d e8          	mov    %rdi,-0x18(%rbp)
  1045c6:	48 89 75 e0          	mov    %rsi,-0x20(%rbp)
  1045ca:	48 89 55 d8          	mov    %rdx,-0x28(%rbp)
  1045ce:	48 8b 45 e8          	mov    -0x18(%rbp),%rax
  1045d2:	48 89 45 f8          	mov    %rax,-0x8(%rbp)
  1045d6:	eb 1d                	jmp    1045f5 <strncpy+0x3b>
  1045d8:	48 8b 55 e0          	mov    -0x20(%rbp),%rdx
  1045dc:	48 8d 42 01          	lea    0x1(%rdx),%rax
  1045e0:	48 89 45 e0          	mov    %rax,-0x20(%rbp)
  1045e4:	48 8b 45 f8          	mov    -0x8(%rbp),%rax
  1045e8:	48 8d 48 01          	lea    0x1(%rax),%rcx
  1045ec:	48 89 4d f8          	mov    %rcx,-0x8(%rbp)
  1045f0:	0f b6 12             	movzbl (%rdx),%edx
  1045f3:	88 10                	mov    %dl,(%rax)
  1045f5:	48 8b 45 d8          	mov    -0x28(%rbp),%rax
  1045f9:	48 8d 50 ff          	lea    -0x1(%rax),%rdx
  1045fd:	48 89 55 d8          	mov    %rdx,-0x28(%rbp)
  104601:	48 85 c0             	test   %rax,%rax
  104604:	74 0b                	je     104611 <strncpy+0x57>
  104606:	48 8b 45 e0          	mov    -0x20(%rbp),%rax
  10460a:	0f b6 00             	movzbl (%rax),%eax
  10460d:	84 c0                	test   %al,%al
  10460f:	75 c7                	jne    1045d8 <strncpy+0x1e>
  104611:	48 8b 45 f8          	mov    -0x8(%rbp),%rax
  104615:	c6 00 00             	movb   $0x0,(%rax)
  104618:	48 8b 45 e8          	mov    -0x18(%rbp),%rax
  10461c:	c9                   	leave
  10461d:	c3                   	ret

000000000010461e <atoi>:
  10461e:	55                   	push   %rbp
  10461f:	48 89 e5             	mov    %rsp,%rbp
  104622:	48 83 ec 18          	sub    $0x18,%rsp
  104626:	48 89 7d e8          	mov    %rdi,-0x18(%rbp)
  10462a:	c7 45 fc 00 00 00 00 	movl   $0x0,-0x4(%rbp)
  104631:	c7 45 f8 01 00 00 00 	movl   $0x1,-0x8(%rbp)
  104638:	c7 45 f4 00 00 00 00 	movl   $0x0,-0xc(%rbp)
  10463f:	eb 04                	jmp    104645 <atoi+0x27>
  104641:	83 45 f4 01          	addl   $0x1,-0xc(%rbp)
  104645:	8b 45 f4             	mov    -0xc(%rbp),%eax
  104648:	48 63 d0             	movslq %eax,%rdx
  10464b:	48 8b 45 e8          	mov    -0x18(%rbp),%rax
  10464f:	48 01 d0             	add    %rdx,%rax
  104652:	0f b6 00             	movzbl (%rax),%eax
  104655:	3c 20                	cmp    $0x20,%al
  104657:	74 e8                	je     104641 <atoi+0x23>
  104659:	8b 45 f4             	mov    -0xc(%rbp),%eax
  10465c:	48 63 d0             	movslq %eax,%rdx
  10465f:	48 8b 45 e8          	mov    -0x18(%rbp),%rax
  104663:	48 01 d0             	add    %rdx,%rax
  104666:	0f b6 00             	movzbl (%rax),%eax
  104669:	3c 09                	cmp    $0x9,%al
  10466b:	74 d4                	je     104641 <atoi+0x23>
  10466d:	8b 45 f4             	mov    -0xc(%rbp),%eax
  104670:	48 63 d0             	movslq %eax,%rdx
  104673:	48 8b 45 e8          	mov    -0x18(%rbp),%rax
  104677:	48 01 d0             	add    %rdx,%rax
  10467a:	0f b6 00             	movzbl (%rax),%eax
  10467d:	3c 0a                	cmp    $0xa,%al
  10467f:	74 c0                	je     104641 <atoi+0x23>
  104681:	8b 45 f4             	mov    -0xc(%rbp),%eax
  104684:	48 63 d0             	movslq %eax,%rdx
  104687:	48 8b 45 e8          	mov    -0x18(%rbp),%rax
  10468b:	48 01 d0             	add    %rdx,%rax
  10468e:	0f b6 00             	movzbl (%rax),%eax
  104691:	3c 2d                	cmp    $0x2d,%al
  104693:	74 14                	je     1046a9 <atoi+0x8b>
  104695:	8b 45 f4             	mov    -0xc(%rbp),%eax
  104698:	48 63 d0             	movslq %eax,%rdx
  10469b:	48 8b 45 e8          	mov    -0x18(%rbp),%rax
  10469f:	48 01 d0             	add    %rdx,%rax
  1046a2:	0f b6 00             	movzbl (%rax),%eax
  1046a5:	3c 2b                	cmp    $0x2b,%al
  1046a7:	75 57                	jne    104700 <atoi+0xe2>
  1046a9:	8b 45 f4             	mov    -0xc(%rbp),%eax
  1046ac:	48 63 d0             	movslq %eax,%rdx
  1046af:	48 8b 45 e8          	mov    -0x18(%rbp),%rax
  1046b3:	48 01 d0             	add    %rdx,%rax
  1046b6:	0f b6 00             	movzbl (%rax),%eax
  1046b9:	3c 2d                	cmp    $0x2d,%al
  1046bb:	75 09                	jne    1046c6 <atoi+0xa8>
  1046bd:	c7 45 f8 ff ff ff ff 	movl   $0xffffffff,-0x8(%rbp)
  1046c4:	eb 07                	jmp    1046cd <atoi+0xaf>
  1046c6:	c7 45 f8 01 00 00 00 	movl   $0x1,-0x8(%rbp)
  1046cd:	83 45 f4 01          	addl   $0x1,-0xc(%rbp)
  1046d1:	eb 2d                	jmp    104700 <atoi+0xe2>
  1046d3:	8b 55 fc             	mov    -0x4(%rbp),%edx
  1046d6:	89 d0                	mov    %edx,%eax
  1046d8:	c1 e0 02             	shl    $0x2,%eax
  1046db:	01 d0                	add    %edx,%eax
  1046dd:	01 c0                	add    %eax,%eax
  1046df:	89 c1                	mov    %eax,%ecx
  1046e1:	8b 45 f4             	mov    -0xc(%rbp),%eax
  1046e4:	48 63 d0             	movslq %eax,%rdx
  1046e7:	48 8b 45 e8          	mov    -0x18(%rbp),%rax
  1046eb:	48 01 d0             	add    %rdx,%rax
  1046ee:	0f b6 00             	movzbl (%rax),%eax
  1046f1:	0f be c0             	movsbl %al,%eax
  1046f4:	83 e8 30             	sub    $0x30,%eax
  1046f7:	01 c8                	add    %ecx,%eax
  1046f9:	89 45 fc             	mov    %eax,-0x4(%rbp)
  1046fc:	83 45 f4 01          	addl   $0x1,-0xc(%rbp)
  104700:	8b 45 f4             	mov    -0xc(%rbp),%eax
  104703:	48 63 d0             	movslq %eax,%rdx
  104706:	48 8b 45 e8          	mov    -0x18(%rbp),%rax
  10470a:	48 01 d0             	add    %rdx,%rax
  10470d:	0f b6 00             	movzbl (%rax),%eax
  104710:	3c 2f                	cmp    $0x2f,%al
  104712:	7e 14                	jle    104728 <atoi+0x10a>
  104714:	8b 45 f4             	mov    -0xc(%rbp),%eax
  104717:	48 63 d0             	movslq %eax,%rdx
  10471a:	48 8b 45 e8          	mov    -0x18(%rbp),%rax
  10471e:	48 01 d0             	add    %rdx,%rax
  104721:	0f b6 00             	movzbl (%rax),%eax
  104724:	3c 39                	cmp    $0x39,%al
  104726:	7e ab                	jle    1046d3 <atoi+0xb5>
  104728:	8b 45 f8             	mov    -0x8(%rbp),%eax
  10472b:	0f af 45 fc          	imul   -0x4(%rbp),%eax
  10472f:	c9                   	leave
  104730:	c3                   	ret

0000000000104731 <trim>:
  104731:	55                   	push   %rbp
  104732:	48 89 e5             	mov    %rsp,%rbp
  104735:	48 83 ec 20          	sub    $0x20,%rsp
  104739:	48 89 7d e8          	mov    %rdi,-0x18(%rbp)
  10473d:	c7 45 fc 00 00 00 00 	movl   $0x0,-0x4(%rbp)
  104744:	48 8b 45 e8          	mov    -0x18(%rbp),%rax
  104748:	48 89 c7             	mov    %rax,%rdi
  10474b:	e8 ea fd ff ff       	call   10453a <strlen>
  104750:	89 45 f8             	mov    %eax,-0x8(%rbp)
  104753:	eb 04                	jmp    104759 <trim+0x28>
  104755:	83 45 fc 01          	addl   $0x1,-0x4(%rbp)
  104759:	8b 45 fc             	mov    -0x4(%rbp),%eax
  10475c:	48 63 d0             	movslq %eax,%rdx
  10475f:	48 8b 45 e8          	mov    -0x18(%rbp),%rax
  104763:	48 01 d0             	add    %rdx,%rax
  104766:	0f b6 00             	movzbl (%rax),%eax
  104769:	3c 20                	cmp    $0x20,%al
  10476b:	74 e8                	je     104755 <trim+0x24>
  10476d:	83 7d fc 00          	cmpl   $0x0,-0x4(%rbp)
  104771:	7e 28                	jle    10479b <trim+0x6a>
  104773:	8b 45 f8             	mov    -0x8(%rbp),%eax
  104776:	2b 45 fc             	sub    -0x4(%rbp),%eax
  104779:	83 c0 01             	add    $0x1,%eax
  10477c:	48 63 d0             	movslq %eax,%rdx
  10477f:	8b 45 fc             	mov    -0x4(%rbp),%eax
  104782:	48 63 c8             	movslq %eax,%rcx
  104785:	48 8b 45 e8          	mov    -0x18(%rbp),%rax
  104789:	48 01 c1             	add    %rax,%rcx
  10478c:	48 8b 45 e8          	mov    -0x18(%rbp),%rax
  104790:	48 89 ce             	mov    %rcx,%rsi
  104793:	48 89 c7             	mov    %rax,%rdi
  104796:	e8 8d 00 00 00       	call   104828 <memmove>
  10479b:	48 8b 45 e8          	mov    -0x18(%rbp),%rax
  10479f:	48 89 c7             	mov    %rax,%rdi
  1047a2:	e8 93 fd ff ff       	call   10453a <strlen>
  1047a7:	89 45 f8             	mov    %eax,-0x8(%rbp)
  1047aa:	eb 14                	jmp    1047c0 <trim+0x8f>
  1047ac:	83 6d f8 01          	subl   $0x1,-0x8(%rbp)
  1047b0:	8b 45 f8             	mov    -0x8(%rbp),%eax
  1047b3:	48 63 d0             	movslq %eax,%rdx
  1047b6:	48 8b 45 e8          	mov    -0x18(%rbp),%rax
  1047ba:	48 01 d0             	add    %rdx,%rax
  1047bd:	c6 00 00             	movb   $0x0,(%rax)
  1047c0:	83 7d f8 00          	cmpl   $0x0,-0x8(%rbp)
  1047c4:	7e 17                	jle    1047dd <trim+0xac>
  1047c6:	8b 45 f8             	mov    -0x8(%rbp),%eax
  1047c9:	48 98                	cltq
  1047cb:	48 8d 50 ff          	lea    -0x1(%rax),%rdx
  1047cf:	48 8b 45 e8          	mov    -0x18(%rbp),%rax
  1047d3:	48 01 d0             	add    %rdx,%rax
  1047d6:	0f b6 00             	movzbl (%rax),%eax
  1047d9:	3c 20                	cmp    $0x20,%al
  1047db:	74 cf                	je     1047ac <trim+0x7b>
  1047dd:	90                   	nop
  1047de:	c9                   	leave
  1047df:	c3                   	ret

00000000001047e0 <strchr>:
  1047e0:	55                   	push   %rbp
  1047e1:	48 89 e5             	mov    %rsp,%rbp
  1047e4:	48 83 ec 10          	sub    $0x10,%rsp
  1047e8:	48 89 7d f8          	mov    %rdi,-0x8(%rbp)
  1047ec:	89 75 f4             	mov    %esi,-0xc(%rbp)
  1047ef:	eb 19                	jmp    10480a <strchr+0x2a>
  1047f1:	48 8b 45 f8          	mov    -0x8(%rbp),%rax
  1047f5:	0f b6 00             	movzbl (%rax),%eax
  1047f8:	8b 55 f4             	mov    -0xc(%rbp),%edx
  1047fb:	38 d0                	cmp    %dl,%al
  1047fd:	75 06                	jne    104805 <strchr+0x25>
  1047ff:	48 8b 45 f8          	mov    -0x8(%rbp),%rax
  104803:	eb 21                	jmp    104826 <strchr+0x46>
  104805:	48 83 45 f8 01       	addq   $0x1,-0x8(%rbp)
  10480a:	48 8b 45 f8          	mov    -0x8(%rbp),%rax
  10480e:	0f b6 00             	movzbl (%rax),%eax
  104811:	84 c0                	test   %al,%al
  104813:	75 dc                	jne    1047f1 <strchr+0x11>
  104815:	83 7d f4 00          	cmpl   $0x0,-0xc(%rbp)
  104819:	75 06                	jne    104821 <strchr+0x41>
  10481b:	48 8b 45 f8          	mov    -0x8(%rbp),%rax
  10481f:	eb 05                	jmp    104826 <strchr+0x46>
  104821:	b8 00 00 00 00       	mov    $0x0,%eax
  104826:	c9                   	leave
  104827:	c3                   	ret

0000000000104828 <memmove>:
  104828:	55                   	push   %rbp
  104829:	48 89 e5             	mov    %rsp,%rbp
  10482c:	48 83 ec 28          	sub    $0x28,%rsp
  104830:	48 89 7d e8          	mov    %rdi,-0x18(%rbp)
  104834:	48 89 75 e0          	mov    %rsi,-0x20(%rbp)
  104838:	48 89 55 d8          	mov    %rdx,-0x28(%rbp)
  10483c:	48 8b 45 e8          	mov    -0x18(%rbp),%rax
  104840:	48 89 45 f8          	mov    %rax,-0x8(%rbp)
  104844:	48 8b 45 e0          	mov    -0x20(%rbp),%rax
  104848:	48 89 45 f0          	mov    %rax,-0x10(%rbp)
  10484c:	48 8b 45 f8          	mov    -0x8(%rbp),%rax
  104850:	48 3b 45 f0          	cmp    -0x10(%rbp),%rax
  104854:	73 32                	jae    104888 <memmove+0x60>
  104856:	eb 1d                	jmp    104875 <memmove+0x4d>
  104858:	48 8b 55 f0          	mov    -0x10(%rbp),%rdx
  10485c:	48 8d 42 01          	lea    0x1(%rdx),%rax
  104860:	48 89 45 f0          	mov    %rax,-0x10(%rbp)
  104864:	48 8b 45 f8          	mov    -0x8(%rbp),%rax
  104868:	48 8d 48 01          	lea    0x1(%rax),%rcx
  10486c:	48 89 4d f8          	mov    %rcx,-0x8(%rbp)
  104870:	0f b6 12             	movzbl (%rdx),%edx
  104873:	88 10                	mov    %dl,(%rax)
  104875:	48 8b 45 d8          	mov    -0x28(%rbp),%rax
  104879:	48 8d 50 ff          	lea    -0x1(%rax),%rdx
  10487d:	48 89 55 d8          	mov    %rdx,-0x28(%rbp)
  104881:	48 85 c0             	test   %rax,%rax
  104884:	75 d2                	jne    104858 <memmove+0x30>
  104886:	eb 44                	jmp    1048cc <memmove+0xa4>
  104888:	48 8b 45 f8          	mov    -0x8(%rbp),%rax
  10488c:	48 39 45 f0          	cmp    %rax,-0x10(%rbp)
  104890:	73 3a                	jae    1048cc <memmove+0xa4>
  104892:	48 8b 45 d8          	mov    -0x28(%rbp),%rax
  104896:	48 01 45 f8          	add    %rax,-0x8(%rbp)
  10489a:	48 8b 45 d8          	mov    -0x28(%rbp),%rax
  10489e:	48 01 45 f0          	add    %rax,-0x10(%rbp)
  1048a2:	eb 17                	jmp    1048bb <memmove+0x93>
  1048a4:	48 83 6d f0 01       	subq   $0x1,-0x10(%rbp)
  1048a9:	48 83 6d f8 01       	subq   $0x1,-0x8(%rbp)
  1048ae:	48 8b 45 f0          	mov    -0x10(%rbp),%rax
  1048b2:	0f b6 10             	movzbl (%rax),%edx
  1048b5:	48 8b 45 f8          	mov    -0x8(%rbp),%rax
  1048b9:	88 10                	mov    %dl,(%rax)
  1048bb:	48 8b 45 d8          	mov    -0x28(%rbp),%rax
  1048bf:	48 8d 50 ff          	lea    -0x1(%rax),%rdx
  1048c3:	48 89 55 d8          	mov    %rdx,-0x28(%rbp)
  1048c7:	48 85 c0             	test   %rax,%rax
  1048ca:	75 d8                	jne    1048a4 <memmove+0x7c>
  1048cc:	48 8b 45 e8          	mov    -0x18(%rbp),%rax
  1048d0:	c9                   	leave
  1048d1:	c3                   	ret

00000000001048d2 <split>:
  1048d2:	55                   	push   %rbp
  1048d3:	48 89 e5             	mov    %rsp,%rbp
  1048d6:	48 83 ec 38          	sub    $0x38,%rsp
  1048da:	48 89 7d d8          	mov    %rdi,-0x28(%rbp)
  1048de:	89 f0                	mov    %esi,%eax
  1048e0:	48 89 55 c8          	mov    %rdx,-0x38(%rbp)
  1048e4:	88 45 d4             	mov    %al,-0x2c(%rbp)
  1048e7:	c7 45 fc 00 00 00 00 	movl   $0x0,-0x4(%rbp)
  1048ee:	48 8b 45 d8          	mov    -0x28(%rbp),%rax
  1048f2:	48 89 45 f0          	mov    %rax,-0x10(%rbp)
  1048f6:	e9 a2 00 00 00       	jmp    10499d <split+0xcb>
  1048fb:	48 83 45 f0 01       	addq   $0x1,-0x10(%rbp)
  104900:	48 8b 45 f0          	mov    -0x10(%rbp),%rax
  104904:	0f b6 00             	movzbl (%rax),%eax
  104907:	38 45 d4             	cmp    %al,-0x2c(%rbp)
  10490a:	74 ef                	je     1048fb <split+0x29>
  10490c:	48 8b 45 f0          	mov    -0x10(%rbp),%rax
  104910:	0f b6 00             	movzbl (%rax),%eax
  104913:	84 c0                	test   %al,%al
  104915:	0f 84 99 00 00 00    	je     1049b4 <split+0xe2>
  10491b:	8b 45 fc             	mov    -0x4(%rbp),%eax
  10491e:	48 98                	cltq
  104920:	48 c1 e0 06          	shl    $0x6,%rax
  104924:	48 05 a0 59 11 00    	add    $0x1159a0,%rax
  10492a:	48 89 45 e0          	mov    %rax,-0x20(%rbp)
  10492e:	c7 45 ec 00 00 00 00 	movl   $0x0,-0x14(%rbp)
  104935:	eb 24                	jmp    10495b <split+0x89>
  104937:	48 8b 45 f0          	mov    -0x10(%rbp),%rax
  10493b:	48 8d 50 01          	lea    0x1(%rax),%rdx
  10493f:	48 89 55 f0          	mov    %rdx,-0x10(%rbp)
  104943:	8b 55 ec             	mov    -0x14(%rbp),%edx
  104946:	8d 4a 01             	lea    0x1(%rdx),%ecx
  104949:	89 4d ec             	mov    %ecx,-0x14(%rbp)
  10494c:	48 63 ca             	movslq %edx,%rcx
  10494f:	48 8b 55 e0          	mov    -0x20(%rbp),%rdx
  104953:	48 01 ca             	add    %rcx,%rdx
  104956:	0f b6 00             	movzbl (%rax),%eax
  104959:	88 02                	mov    %al,(%rdx)
  10495b:	48 8b 45 f0          	mov    -0x10(%rbp),%rax
  10495f:	0f b6 00             	movzbl (%rax),%eax
  104962:	84 c0                	test   %al,%al
  104964:	74 12                	je     104978 <split+0xa6>
  104966:	48 8b 45 f0          	mov    -0x10(%rbp),%rax
  10496a:	0f b6 00             	movzbl (%rax),%eax
  10496d:	38 45 d4             	cmp    %al,-0x2c(%rbp)
  104970:	74 06                	je     104978 <split+0xa6>
  104972:	83 7d ec 3e          	cmpl   $0x3e,-0x14(%rbp)
  104976:	7e bf                	jle    104937 <split+0x65>
  104978:	8b 45 ec             	mov    -0x14(%rbp),%eax
  10497b:	48 63 d0             	movslq %eax,%rdx
  10497e:	48 8b 45 e0          	mov    -0x20(%rbp),%rax
  104982:	48 01 d0             	add    %rdx,%rax
  104985:	c6 00 00             	movb   $0x0,(%rax)
  104988:	8b 45 fc             	mov    -0x4(%rbp),%eax
  10498b:	48 98                	cltq
  10498d:	48 8b 55 e0          	mov    -0x20(%rbp),%rdx
  104991:	48 89 14 c5 a0 69 11 	mov    %rdx,0x1169a0(,%rax,8)
  104998:	00 
  104999:	83 45 fc 01          	addl   $0x1,-0x4(%rbp)
  10499d:	48 8b 45 f0          	mov    -0x10(%rbp),%rax
  1049a1:	0f b6 00             	movzbl (%rax),%eax
  1049a4:	84 c0                	test   %al,%al
  1049a6:	74 0d                	je     1049b5 <split+0xe3>
  1049a8:	83 7d fc 3f          	cmpl   $0x3f,-0x4(%rbp)
  1049ac:	0f 8e 4e ff ff ff    	jle    104900 <split+0x2e>
  1049b2:	eb 01                	jmp    1049b5 <split+0xe3>
  1049b4:	90                   	nop
  1049b5:	48 8b 45 c8          	mov    -0x38(%rbp),%rax
  1049b9:	8b 55 fc             	mov    -0x4(%rbp),%edx
  1049bc:	89 10                	mov    %edx,(%rax)
  1049be:	b8 a0 69 11 00       	mov    $0x1169a0,%eax
  1049c3:	c9                   	leave
  1049c4:	c3                   	ret

00000000001049c5 <strtok>:
  1049c5:	55                   	push   %rbp
  1049c6:	48 89 e5             	mov    %rsp,%rbp
  1049c9:	48 83 ec 20          	sub    $0x20,%rsp
  1049cd:	48 89 7d e8          	mov    %rdi,-0x18(%rbp)
  1049d1:	48 89 75 e0          	mov    %rsi,-0x20(%rbp)
  1049d5:	48 83 7d e8 00       	cmpq   $0x0,-0x18(%rbp)
  1049da:	74 0b                	je     1049e7 <strtok+0x22>
  1049dc:	48 8b 45 e8          	mov    -0x18(%rbp),%rax
  1049e0:	48 89 05 b9 21 01 00 	mov    %rax,0x121b9(%rip)        # 116ba0 <last.0>
  1049e7:	48 8b 05 b2 21 01 00 	mov    0x121b2(%rip),%rax        # 116ba0 <last.0>
  1049ee:	48 85 c0             	test   %rax,%rax
  1049f1:	75 1c                	jne    104a0f <strtok+0x4a>
  1049f3:	b8 00 00 00 00       	mov    $0x0,%eax
  1049f8:	e9 eb 00 00 00       	jmp    104ae8 <strtok+0x123>
  1049fd:	48 8b 05 9c 21 01 00 	mov    0x1219c(%rip),%rax        # 116ba0 <last.0>
  104a04:	48 83 c0 01          	add    $0x1,%rax
  104a08:	48 89 05 91 21 01 00 	mov    %rax,0x12191(%rip)        # 116ba0 <last.0>
  104a0f:	48 8b 05 8a 21 01 00 	mov    0x1218a(%rip),%rax        # 116ba0 <last.0>
  104a16:	0f b6 00             	movzbl (%rax),%eax
  104a19:	84 c0                	test   %al,%al
  104a1b:	74 20                	je     104a3d <strtok+0x78>
  104a1d:	48 8b 05 7c 21 01 00 	mov    0x1217c(%rip),%rax        # 116ba0 <last.0>
  104a24:	0f b6 00             	movzbl (%rax),%eax
  104a27:	0f be d0             	movsbl %al,%edx
  104a2a:	48 8b 45 e0          	mov    -0x20(%rbp),%rax
  104a2e:	89 d6                	mov    %edx,%esi
  104a30:	48 89 c7             	mov    %rax,%rdi
  104a33:	e8 a8 fd ff ff       	call   1047e0 <strchr>
  104a38:	48 85 c0             	test   %rax,%rax
  104a3b:	75 c0                	jne    1049fd <strtok+0x38>
  104a3d:	48 8b 05 5c 21 01 00 	mov    0x1215c(%rip),%rax        # 116ba0 <last.0>
  104a44:	0f b6 00             	movzbl (%rax),%eax
  104a47:	84 c0                	test   %al,%al
  104a49:	75 15                	jne    104a60 <strtok+0x9b>
  104a4b:	48 c7 05 4a 21 01 00 	movq   $0x0,0x1214a(%rip)        # 116ba0 <last.0>
  104a52:	00 00 00 00 
  104a56:	b8 00 00 00 00       	mov    $0x0,%eax
  104a5b:	e9 88 00 00 00       	jmp    104ae8 <strtok+0x123>
  104a60:	48 8b 05 39 21 01 00 	mov    0x12139(%rip),%rax        # 116ba0 <last.0>
  104a67:	48 89 45 f8          	mov    %rax,-0x8(%rbp)
  104a6b:	eb 12                	jmp    104a7f <strtok+0xba>
  104a6d:	48 8b 05 2c 21 01 00 	mov    0x1212c(%rip),%rax        # 116ba0 <last.0>
  104a74:	48 83 c0 01          	add    $0x1,%rax
  104a78:	48 89 05 21 21 01 00 	mov    %rax,0x12121(%rip)        # 116ba0 <last.0>
  104a7f:	48 8b 05 1a 21 01 00 	mov    0x1211a(%rip),%rax        # 116ba0 <last.0>
  104a86:	0f b6 00             	movzbl (%rax),%eax
  104a89:	84 c0                	test   %al,%al
  104a8b:	74 20                	je     104aad <strtok+0xe8>
  104a8d:	48 8b 05 0c 21 01 00 	mov    0x1210c(%rip),%rax        # 116ba0 <last.0>
  104a94:	0f b6 00             	movzbl (%rax),%eax
  104a97:	0f be d0             	movsbl %al,%edx
  104a9a:	48 8b 45 e0          	mov    -0x20(%rbp),%rax
  104a9e:	89 d6                	mov    %edx,%esi
  104aa0:	48 89 c7             	mov    %rax,%rdi
  104aa3:	e8 38 fd ff ff       	call   1047e0 <strchr>
  104aa8:	48 85 c0             	test   %rax,%rax
  104aab:	74 c0                	je     104a6d <strtok+0xa8>
  104aad:	48 8b 05 ec 20 01 00 	mov    0x120ec(%rip),%rax        # 116ba0 <last.0>
  104ab4:	0f b6 00             	movzbl (%rax),%eax
  104ab7:	84 c0                	test   %al,%al
  104ab9:	74 1e                	je     104ad9 <strtok+0x114>
  104abb:	48 8b 05 de 20 01 00 	mov    0x120de(%rip),%rax        # 116ba0 <last.0>
  104ac2:	c6 00 00             	movb   $0x0,(%rax)
  104ac5:	48 8b 05 d4 20 01 00 	mov    0x120d4(%rip),%rax        # 116ba0 <last.0>
  104acc:	48 83 c0 01          	add    $0x1,%rax
  104ad0:	48 89 05 c9 20 01 00 	mov    %rax,0x120c9(%rip)        # 116ba0 <last.0>
  104ad7:	eb 0b                	jmp    104ae4 <strtok+0x11f>
  104ad9:	48 c7 05 bc 20 01 00 	movq   $0x0,0x120bc(%rip)        # 116ba0 <last.0>
  104ae0:	00 00 00 00 
  104ae4:	48 8b 45 f8          	mov    -0x8(%rbp),%rax
  104ae8:	c9                   	leave
  104ae9:	c3                   	ret

0000000000104aea <strstr>:
  104aea:	55                   	push   %rbp
  104aeb:	48 89 e5             	mov    %rsp,%rbp
  104aee:	48 83 ec 20          	sub    $0x20,%rsp
  104af2:	48 89 7d e8          	mov    %rdi,-0x18(%rbp)
  104af6:	48 89 75 e0          	mov    %rsi,-0x20(%rbp)
  104afa:	48 8b 45 e0          	mov    -0x20(%rbp),%rax
  104afe:	0f b6 00             	movzbl (%rax),%eax
  104b01:	84 c0                	test   %al,%al
  104b03:	75 60                	jne    104b65 <strstr+0x7b>
  104b05:	48 8b 45 e8          	mov    -0x18(%rbp),%rax
  104b09:	eb 6a                	jmp    104b75 <strstr+0x8b>
  104b0b:	48 8b 45 e8          	mov    -0x18(%rbp),%rax
  104b0f:	48 89 45 f8          	mov    %rax,-0x8(%rbp)
  104b13:	48 8b 45 e0          	mov    -0x20(%rbp),%rax
  104b17:	48 89 45 f0          	mov    %rax,-0x10(%rbp)
  104b1b:	eb 0a                	jmp    104b27 <strstr+0x3d>
  104b1d:	48 83 45 f8 01       	addq   $0x1,-0x8(%rbp)
  104b22:	48 83 45 f0 01       	addq   $0x1,-0x10(%rbp)
  104b27:	48 8b 45 f8          	mov    -0x8(%rbp),%rax
  104b2b:	0f b6 00             	movzbl (%rax),%eax
  104b2e:	84 c0                	test   %al,%al
  104b30:	74 1d                	je     104b4f <strstr+0x65>
  104b32:	48 8b 45 f0          	mov    -0x10(%rbp),%rax
  104b36:	0f b6 00             	movzbl (%rax),%eax
  104b39:	84 c0                	test   %al,%al
  104b3b:	74 12                	je     104b4f <strstr+0x65>
  104b3d:	48 8b 45 f8          	mov    -0x8(%rbp),%rax
  104b41:	0f b6 10             	movzbl (%rax),%edx
  104b44:	48 8b 45 f0          	mov    -0x10(%rbp),%rax
  104b48:	0f b6 00             	movzbl (%rax),%eax
  104b4b:	38 c2                	cmp    %al,%dl
  104b4d:	74 ce                	je     104b1d <strstr+0x33>
  104b4f:	48 8b 45 f0          	mov    -0x10(%rbp),%rax
  104b53:	0f b6 00             	movzbl (%rax),%eax
  104b56:	84 c0                	test   %al,%al
  104b58:	75 06                	jne    104b60 <strstr+0x76>
  104b5a:	48 8b 45 e8          	mov    -0x18(%rbp),%rax
  104b5e:	eb 15                	jmp    104b75 <strstr+0x8b>
  104b60:	48 83 45 e8 01       	addq   $0x1,-0x18(%rbp)
  104b65:	48 8b 45 e8          	mov    -0x18(%rbp),%rax
  104b69:	0f b6 00             	movzbl (%rax),%eax
  104b6c:	84 c0                	test   %al,%al
  104b6e:	75 9b                	jne    104b0b <strstr+0x21>
  104b70:	b8 00 00 00 00       	mov    $0x0,%eax
  104b75:	c9                   	leave
  104b76:	c3                   	ret

0000000000104b77 <gdt_flush>:
  104b77:	0f 01 17             	lgdt   (%rdi)
  104b7a:	66 b8 10 00          	mov    $0x10,%ax
  104b7e:	8e d8                	mov    %eax,%ds
  104b80:	8e c0                	mov    %eax,%es
  104b82:	8e e0                	mov    %eax,%fs
  104b84:	8e e8                	mov    %eax,%gs
  104b86:	8e d0                	mov    %eax,%ss
  104b88:	c3                   	ret

0000000000104b89 <isr0>:
  104b89:	fa                   	cli
  104b8a:	6a 00                	push   $0x0
  104b8c:	6a 00                	push   $0x0
  104b8e:	e9 8f 01 00 00       	jmp    104d22 <isr_common_stub>

0000000000104b93 <isr1>:
  104b93:	fa                   	cli
  104b94:	6a 00                	push   $0x0
  104b96:	6a 01                	push   $0x1
  104b98:	e9 85 01 00 00       	jmp    104d22 <isr_common_stub>

0000000000104b9d <isr2>:
  104b9d:	fa                   	cli
  104b9e:	6a 00                	push   $0x0
  104ba0:	6a 02                	push   $0x2
  104ba2:	e9 7b 01 00 00       	jmp    104d22 <isr_common_stub>

0000000000104ba7 <isr3>:
  104ba7:	fa                   	cli
  104ba8:	6a 00                	push   $0x0
  104baa:	6a 03                	push   $0x3
  104bac:	e9 71 01 00 00       	jmp    104d22 <isr_common_stub>

0000000000104bb1 <isr4>:
  104bb1:	fa                   	cli
  104bb2:	6a 00                	push   $0x0
  104bb4:	6a 04                	push   $0x4
  104bb6:	e9 67 01 00 00       	jmp    104d22 <isr_common_stub>

0000000000104bbb <isr5>:
  104bbb:	fa                   	cli
  104bbc:	6a 00                	push   $0x0
  104bbe:	6a 05                	push   $0x5
  104bc0:	e9 5d 01 00 00       	jmp    104d22 <isr_common_stub>

0000000000104bc5 <isr6>:
  104bc5:	fa                   	cli
  104bc6:	6a 00                	push   $0x0
  104bc8:	6a 06                	push   $0x6
  104bca:	e9 53 01 00 00       	jmp    104d22 <isr_common_stub>

0000000000104bcf <isr7>:
  104bcf:	fa                   	cli
  104bd0:	6a 00                	push   $0x0
  104bd2:	6a 07                	push   $0x7
  104bd4:	e9 49 01 00 00       	jmp    104d22 <isr_common_stub>

0000000000104bd9 <isr8>:
  104bd9:	fa                   	cli
  104bda:	6a 08                	push   $0x8
  104bdc:	e9 41 01 00 00       	jmp    104d22 <isr_common_stub>

0000000000104be1 <isr9>:
  104be1:	fa                   	cli
  104be2:	6a 00                	push   $0x0
  104be4:	6a 09                	push   $0x9
  104be6:	e9 37 01 00 00       	jmp    104d22 <isr_common_stub>

0000000000104beb <isr10>:
  104beb:	fa                   	cli
  104bec:	6a 0a                	push   $0xa
  104bee:	e9 2f 01 00 00       	jmp    104d22 <isr_common_stub>

0000000000104bf3 <isr11>:
  104bf3:	fa                   	cli
  104bf4:	6a 0b                	push   $0xb
  104bf6:	e9 27 01 00 00       	jmp    104d22 <isr_common_stub>

0000000000104bfb <isr12>:
  104bfb:	fa                   	cli
  104bfc:	6a 0c                	push   $0xc
  104bfe:	e9 1f 01 00 00       	jmp    104d22 <isr_common_stub>

0000000000104c03 <isr13>:
  104c03:	fa                   	cli
  104c04:	6a 0d                	push   $0xd
  104c06:	e9 17 01 00 00       	jmp    104d22 <isr_common_stub>

0000000000104c0b <isr14>:
  104c0b:	fa                   	cli
  104c0c:	6a 0e                	push   $0xe
  104c0e:	e9 0f 01 00 00       	jmp    104d22 <isr_common_stub>

0000000000104c13 <isr15>:
  104c13:	fa                   	cli
  104c14:	6a 00                	push   $0x0
  104c16:	6a 0f                	push   $0xf
  104c18:	e9 05 01 00 00       	jmp    104d22 <isr_common_stub>

0000000000104c1d <isr16>:
  104c1d:	fa                   	cli
  104c1e:	6a 00                	push   $0x0
  104c20:	6a 10                	push   $0x10
  104c22:	e9 fb 00 00 00       	jmp    104d22 <isr_common_stub>

0000000000104c27 <isr17>:
  104c27:	fa                   	cli
  104c28:	6a 11                	push   $0x11
  104c2a:	e9 f3 00 00 00       	jmp    104d22 <isr_common_stub>

0000000000104c2f <isr18>:
  104c2f:	fa                   	cli
  104c30:	6a 00                	push   $0x0
  104c32:	6a 12                	push   $0x12
  104c34:	e9 e9 00 00 00       	jmp    104d22 <isr_common_stub>

0000000000104c39 <isr19>:
  104c39:	fa                   	cli
  104c3a:	6a 00                	push   $0x0
  104c3c:	6a 13                	push   $0x13
  104c3e:	e9 df 00 00 00       	jmp    104d22 <isr_common_stub>

0000000000104c43 <isr20>:
  104c43:	fa                   	cli
  104c44:	6a 00                	push   $0x0
  104c46:	6a 14                	push   $0x14
  104c48:	e9 d5 00 00 00       	jmp    104d22 <isr_common_stub>

0000000000104c4d <isr21>:
  104c4d:	fa                   	cli
  104c4e:	6a 00                	push   $0x0
  104c50:	6a 15                	push   $0x15
  104c52:	e9 cb 00 00 00       	jmp    104d22 <isr_common_stub>

0000000000104c57 <isr22>:
  104c57:	fa                   	cli
  104c58:	6a 00                	push   $0x0
  104c5a:	6a 16                	push   $0x16
  104c5c:	e9 c1 00 00 00       	jmp    104d22 <isr_common_stub>

0000000000104c61 <isr23>:
  104c61:	fa                   	cli
  104c62:	6a 00                	push   $0x0
  104c64:	6a 17                	push   $0x17
  104c66:	e9 b7 00 00 00       	jmp    104d22 <isr_common_stub>

0000000000104c6b <isr24>:
  104c6b:	fa                   	cli
  104c6c:	6a 00                	push   $0x0
  104c6e:	6a 18                	push   $0x18
  104c70:	e9 ad 00 00 00       	jmp    104d22 <isr_common_stub>

0000000000104c75 <isr25>:
  104c75:	fa                   	cli
  104c76:	6a 00                	push   $0x0
  104c78:	6a 19                	push   $0x19
  104c7a:	e9 a3 00 00 00       	jmp    104d22 <isr_common_stub>

0000000000104c7f <isr26>:
  104c7f:	fa                   	cli
  104c80:	6a 00                	push   $0x0
  104c82:	6a 1a                	push   $0x1a
  104c84:	e9 99 00 00 00       	jmp    104d22 <isr_common_stub>

0000000000104c89 <isr27>:
  104c89:	fa                   	cli
  104c8a:	6a 00                	push   $0x0
  104c8c:	6a 1b                	push   $0x1b
  104c8e:	e9 8f 00 00 00       	jmp    104d22 <isr_common_stub>

0000000000104c93 <isr28>:
  104c93:	fa                   	cli
  104c94:	6a 00                	push   $0x0
  104c96:	6a 1c                	push   $0x1c
  104c98:	e9 85 00 00 00       	jmp    104d22 <isr_common_stub>

0000000000104c9d <isr29>:
  104c9d:	fa                   	cli
  104c9e:	6a 00                	push   $0x0
  104ca0:	6a 1d                	push   $0x1d
  104ca2:	eb 7e                	jmp    104d22 <isr_common_stub>

0000000000104ca4 <isr30>:
  104ca4:	fa                   	cli
  104ca5:	6a 00                	push   $0x0
  104ca7:	6a 1e                	push   $0x1e
  104ca9:	eb 77                	jmp    104d22 <isr_common_stub>

0000000000104cab <isr31>:
  104cab:	fa                   	cli
  104cac:	6a 00                	push   $0x0
  104cae:	6a 1f                	push   $0x1f
  104cb0:	eb 70                	jmp    104d22 <isr_common_stub>

0000000000104cb2 <irq32>:
  104cb2:	fa                   	cli
  104cb3:	6a 00                	push   $0x0
  104cb5:	6a 20                	push   $0x20
  104cb7:	eb 69                	jmp    104d22 <isr_common_stub>

0000000000104cb9 <irq33>:
  104cb9:	fa                   	cli
  104cba:	6a 00                	push   $0x0
  104cbc:	6a 21                	push   $0x21
  104cbe:	eb 62                	jmp    104d22 <isr_common_stub>

0000000000104cc0 <irq34>:
  104cc0:	fa                   	cli
  104cc1:	6a 00                	push   $0x0
  104cc3:	6a 22                	push   $0x22
  104cc5:	eb 5b                	jmp    104d22 <isr_common_stub>

0000000000104cc7 <irq35>:
  104cc7:	fa                   	cli
  104cc8:	6a 00                	push   $0x0
  104cca:	6a 23                	push   $0x23
  104ccc:	eb 54                	jmp    104d22 <isr_common_stub>

0000000000104cce <irq36>:
  104cce:	fa                   	cli
  104ccf:	6a 00                	push   $0x0
  104cd1:	6a 24                	push   $0x24
  104cd3:	eb 4d                	jmp    104d22 <isr_common_stub>

0000000000104cd5 <irq37>:
  104cd5:	fa                   	cli
  104cd6:	6a 00                	push   $0x0
  104cd8:	6a 25                	push   $0x25
  104cda:	eb 46                	jmp    104d22 <isr_common_stub>

0000000000104cdc <irq38>:
  104cdc:	fa                   	cli
  104cdd:	6a 00                	push   $0x0
  104cdf:	6a 26                	push   $0x26
  104ce1:	eb 3f                	jmp    104d22 <isr_common_stub>

0000000000104ce3 <irq39>:
  104ce3:	fa                   	cli
  104ce4:	6a 00                	push   $0x0
  104ce6:	6a 27                	push   $0x27
  104ce8:	eb 38                	jmp    104d22 <isr_common_stub>

0000000000104cea <irq40>:
  104cea:	fa                   	cli
  104ceb:	6a 00                	push   $0x0
  104ced:	6a 28                	push   $0x28
  104cef:	eb 31                	jmp    104d22 <isr_common_stub>

0000000000104cf1 <irq41>:
  104cf1:	fa                   	cli
  104cf2:	6a 00                	push   $0x0
  104cf4:	6a 29                	push   $0x29
  104cf6:	eb 2a                	jmp    104d22 <isr_common_stub>

0000000000104cf8 <irq42>:
  104cf8:	fa                   	cli
  104cf9:	6a 00                	push   $0x0
  104cfb:	6a 2a                	push   $0x2a
  104cfd:	eb 23                	jmp    104d22 <isr_common_stub>

0000000000104cff <irq43>:
  104cff:	fa                   	cli
  104d00:	6a 00                	push   $0x0
  104d02:	6a 2b                	push   $0x2b
  104d04:	eb 1c                	jmp    104d22 <isr_common_stub>

0000000000104d06 <irq44>:
  104d06:	fa                   	cli
  104d07:	6a 00                	push   $0x0
  104d09:	6a 2c                	push   $0x2c
  104d0b:	eb 15                	jmp    104d22 <isr_common_stub>

0000000000104d0d <irq45>:
  104d0d:	fa                   	cli
  104d0e:	6a 00                	push   $0x0
  104d10:	6a 2d                	push   $0x2d
  104d12:	eb 0e                	jmp    104d22 <isr_common_stub>

0000000000104d14 <irq46>:
  104d14:	fa                   	cli
  104d15:	6a 00                	push   $0x0
  104d17:	6a 2e                	push   $0x2e
  104d19:	eb 07                	jmp    104d22 <isr_common_stub>

0000000000104d1b <irq47>:
  104d1b:	fa                   	cli
  104d1c:	6a 00                	push   $0x0
  104d1e:	6a 2f                	push   $0x2f
  104d20:	eb 00                	jmp    104d22 <isr_common_stub>

0000000000104d22 <isr_common_stub>:
  104d22:	50                   	push   %rax
  104d23:	53                   	push   %rbx
  104d24:	51                   	push   %rcx
  104d25:	52                   	push   %rdx
  104d26:	56                   	push   %rsi
  104d27:	57                   	push   %rdi
  104d28:	55                   	push   %rbp
  104d29:	41 50                	push   %r8
  104d2b:	41 51                	push   %r9
  104d2d:	41 52                	push   %r10
  104d2f:	41 53                	push   %r11
  104d31:	41 54                	push   %r12
  104d33:	41 55                	push   %r13
  104d35:	41 56                	push   %r14
  104d37:	41 57                	push   %r15
  104d39:	48 81 ec 00 02 00 00 	sub    $0x200,%rsp
  104d40:	0f ae 04 24          	fxsave (%rsp)
  104d44:	48 89 e7             	mov    %rsp,%rdi
  104d47:	48 81 c7 00 02 00 00 	add    $0x200,%rdi
  104d4e:	e8 09 bd ff ff       	call   100a5c <isr_handler>
  104d53:	0f ae 0c 24          	fxrstor (%rsp)
  104d57:	48 81 c4 00 02 00 00 	add    $0x200,%rsp
  104d5e:	41 5f                	pop    %r15
  104d60:	41 5e                	pop    %r14
  104d62:	41 5d                	pop    %r13
  104d64:	41 5c                	pop    %r12
  104d66:	41 5b                	pop    %r11
  104d68:	41 5a                	pop    %r10
  104d6a:	41 59                	pop    %r9
  104d6c:	41 58                	pop    %r8
  104d6e:	5d                   	pop    %rbp
  104d6f:	5f                   	pop    %rdi
  104d70:	5e                   	pop    %rsi
  104d71:	5a                   	pop    %rdx
  104d72:	59                   	pop    %rcx
  104d73:	5b                   	pop    %rbx
  104d74:	58                   	pop    %rax
  104d75:	48 83 c4 10          	add    $0x10,%rsp
  104d79:	fb                   	sti
  104d7a:	48 cf                	iretq
